
GccApplication1.elf:     file format elf32-avr

Sections:
Idx Name          Size      VMA       LMA       File off  Algn
  0 .data         00000008  00800100  00000378  0000040c  2**0
                  CONTENTS, ALLOC, LOAD, DATA
  1 .text         00000378  00000000  00000000  00000094  2**1
                  CONTENTS, ALLOC, LOAD, READONLY, CODE
  2 .bss          00000007  00800108  00800108  00000414  2**0
                  ALLOC
  3 .comment      00000030  00000000  00000000  00000414  2**0
                  CONTENTS, READONLY
  4 .note.gnu.avr.deviceinfo 00000040  00000000  00000000  00000444  2**2
                  CONTENTS, READONLY
  5 .debug_aranges 00000070  00000000  00000000  00000484  2**0
                  CONTENTS, READONLY, DEBUGGING
  6 .debug_info   00000907  00000000  00000000  000004f4  2**0
                  CONTENTS, READONLY, DEBUGGING
  7 .debug_abbrev 00000760  00000000  00000000  00000dfb  2**0
                  CONTENTS, READONLY, DEBUGGING
  8 .debug_line   000004dc  00000000  00000000  0000155b  2**0
                  CONTENTS, READONLY, DEBUGGING
  9 .debug_frame  00000110  00000000  00000000  00001a38  2**2
                  CONTENTS, READONLY, DEBUGGING
 10 .debug_str    00000415  00000000  00000000  00001b48  2**0
                  CONTENTS, READONLY, DEBUGGING
 11 .debug_loc    00000164  00000000  00000000  00001f5d  2**0
                  CONTENTS, READONLY, DEBUGGING
 12 .debug_ranges 00000050  00000000  00000000  000020c1  2**0
                  CONTENTS, READONLY, DEBUGGING

Disassembly of section .text:

00000000 <__vectors>:
   0:	0c 94 34 00 	jmp	0x68	; 0x68 <__ctors_end>
   4:	0c 94 51 00 	jmp	0xa2	; 0xa2 <__bad_interrupt>
   8:	0c 94 51 00 	jmp	0xa2	; 0xa2 <__bad_interrupt>
   c:	0c 94 87 00 	jmp	0x10e	; 0x10e <__vector_3>
  10:	0c 94 d5 00 	jmp	0x1aa	; 0x1aa <__vector_4>
  14:	0c 94 51 00 	jmp	0xa2	; 0xa2 <__bad_interrupt>
  18:	0c 94 51 00 	jmp	0xa2	; 0xa2 <__bad_interrupt>
  1c:	0c 94 51 00 	jmp	0xa2	; 0xa2 <__bad_interrupt>
  20:	0c 94 51 00 	jmp	0xa2	; 0xa2 <__bad_interrupt>
  24:	0c 94 51 00 	jmp	0xa2	; 0xa2 <__bad_interrupt>
  28:	0c 94 51 00 	jmp	0xa2	; 0xa2 <__bad_interrupt>
  2c:	0c 94 51 00 	jmp	0xa2	; 0xa2 <__bad_interrupt>
  30:	0c 94 51 00 	jmp	0xa2	; 0xa2 <__bad_interrupt>
  34:	0c 94 51 00 	jmp	0xa2	; 0xa2 <__bad_interrupt>
  38:	0c 94 51 00 	jmp	0xa2	; 0xa2 <__bad_interrupt>
  3c:	0c 94 51 00 	jmp	0xa2	; 0xa2 <__bad_interrupt>
  40:	0c 94 65 00 	jmp	0xca	; 0xca <__vector_16>
  44:	0c 94 51 00 	jmp	0xa2	; 0xa2 <__bad_interrupt>
  48:	0c 94 51 00 	jmp	0xa2	; 0xa2 <__bad_interrupt>
  4c:	0c 94 51 00 	jmp	0xa2	; 0xa2 <__bad_interrupt>
  50:	0c 94 51 00 	jmp	0xa2	; 0xa2 <__bad_interrupt>
  54:	0c 94 51 00 	jmp	0xa2	; 0xa2 <__bad_interrupt>
  58:	0c 94 51 00 	jmp	0xa2	; 0xa2 <__bad_interrupt>
  5c:	0c 94 51 00 	jmp	0xa2	; 0xa2 <__bad_interrupt>
  60:	0c 94 51 00 	jmp	0xa2	; 0xa2 <__bad_interrupt>
  64:	0c 94 51 00 	jmp	0xa2	; 0xa2 <__bad_interrupt>

00000068 <__ctors_end>:
  68:	11 24       	eor	r1, r1
  6a:	1f be       	out	0x3f, r1	; 63
  6c:	cf ef       	ldi	r28, 0xFF	; 255
  6e:	d8 e0       	ldi	r29, 0x08	; 8
  70:	de bf       	out	0x3e, r29	; 62
  72:	cd bf       	out	0x3d, r28	; 61

00000074 <__do_copy_data>:
  74:	11 e0       	ldi	r17, 0x01	; 1
  76:	a0 e0       	ldi	r26, 0x00	; 0
  78:	b1 e0       	ldi	r27, 0x01	; 1
  7a:	e8 e7       	ldi	r30, 0x78	; 120
  7c:	f3 e0       	ldi	r31, 0x03	; 3
  7e:	02 c0       	rjmp	.+4      	; 0x84 <__do_copy_data+0x10>
  80:	05 90       	lpm	r0, Z+
  82:	0d 92       	st	X+, r0
  84:	a8 30       	cpi	r26, 0x08	; 8
  86:	b1 07       	cpc	r27, r17
  88:	d9 f7       	brne	.-10     	; 0x80 <__do_copy_data+0xc>

0000008a <__do_clear_bss>:
  8a:	21 e0       	ldi	r18, 0x01	; 1
  8c:	a8 e0       	ldi	r26, 0x08	; 8
  8e:	b1 e0       	ldi	r27, 0x01	; 1
  90:	01 c0       	rjmp	.+2      	; 0x94 <.do_clear_bss_start>

00000092 <.do_clear_bss_loop>:
  92:	1d 92       	st	X+, r1

00000094 <.do_clear_bss_start>:
  94:	af 30       	cpi	r26, 0x0F	; 15
  96:	b2 07       	cpc	r27, r18
  98:	e1 f7       	brne	.-8      	; 0x92 <.do_clear_bss_loop>
  9a:	0e 94 38 01 	call	0x270	; 0x270 <main>
  9e:	0c 94 ba 01 	jmp	0x374	; 0x374 <_exit>

000000a2 <__bad_interrupt>:
  a2:	0c 94 00 00 	jmp	0	; 0x0 <__vectors>

000000a6 <display7seg_init>:
//PD1 --> b
//PD0 --> g

void display7seg_init(volatile uint8_t *port)
{
	display_port = port;
  a6:	90 93 09 01 	sts	0x0109, r25	; 0x800109 <__data_end+0x1>
  aa:	80 93 08 01 	sts	0x0108, r24	; 0x800108 <__data_end>
  ae:	08 95       	ret

000000b0 <display7seg_write>:
}

void display7seg_write(uint8_t number)
{
	if (number < 10)
  b0:	8a 30       	cpi	r24, 0x0A	; 10
  b2:	50 f4       	brcc	.+20     	; 0xc8 <display7seg_write+0x18>
	*display_port = seg_table[number];
  b4:	a0 91 08 01 	lds	r26, 0x0108	; 0x800108 <__data_end>
  b8:	b0 91 09 01 	lds	r27, 0x0109	; 0x800109 <__data_end+0x1>
  bc:	e8 2f       	mov	r30, r24
  be:	f0 e0       	ldi	r31, 0x00	; 0
  c0:	ef 5f       	subi	r30, 0xFF	; 255
  c2:	fe 4f       	sbci	r31, 0xFE	; 254
  c4:	80 81       	ld	r24, Z
  c6:	8c 93       	st	X, r24
  c8:	08 95       	ret

000000ca <__vector_16>:
void setup_timer0(void);

// Interrupciones
// ===== ISRs =====
ISR(TIMER0_OVF_vect)
{
  ca:	1f 92       	push	r1
  cc:	0f 92       	push	r0
  ce:	0f b6       	in	r0, 0x3f	; 63
  d0:	0f 92       	push	r0
  d2:	11 24       	eor	r1, r1
  d4:	8f 93       	push	r24
	TCNT0 = 12;          // Recargar timer
  d6:	8c e0       	ldi	r24, 0x0C	; 12
  d8:	86 bd       	out	0x26, r24	; 38

	ovf_count++;
  da:	80 91 0d 01 	lds	r24, 0x010D	; 0x80010d <ovf_count>
  de:	8f 5f       	subi	r24, 0xFF	; 255
  e0:	80 93 0d 01 	sts	0x010D, r24	; 0x80010d <ovf_count>

	if (ovf_count >= 4) // 4 overflows = 1 segundo
  e4:	80 91 0d 01 	lds	r24, 0x010D	; 0x80010d <ovf_count>
  e8:	84 30       	cpi	r24, 0x04	; 4
  ea:	58 f0       	brcs	.+22     	; 0x102 <__vector_16+0x38>
	{
		ovf_count = 0;
  ec:	10 92 0d 01 	sts	0x010D, r1	; 0x80010d <ovf_count>
		if (state==1)
  f0:	80 91 0e 01 	lds	r24, 0x010E	; 0x80010e <state>
  f4:	81 30       	cpi	r24, 0x01	; 1
  f6:	29 f4       	brne	.+10     	; 0x102 <__vector_16+0x38>
		{
			display--;
  f8:	80 91 00 01 	lds	r24, 0x0100	; 0x800100 <__DATA_REGION_ORIGIN__>
  fc:	81 50       	subi	r24, 0x01	; 1
  fe:	80 93 00 01 	sts	0x0100, r24	; 0x800100 <__DATA_REGION_ORIGIN__>
		}
	}
}
 102:	8f 91       	pop	r24
 104:	0f 90       	pop	r0
 106:	0f be       	out	0x3f, r0	; 63
 108:	0f 90       	pop	r0
 10a:	1f 90       	pop	r1
 10c:	18 95       	reti

0000010e <__vector_3>:

ISR(PCINT0_vect)
{
 10e:	1f 92       	push	r1
 110:	0f 92       	push	r0
 112:	0f b6       	in	r0, 0x3f	; 63
 114:	0f 92       	push	r0
 116:	11 24       	eor	r1, r1
 118:	2f 93       	push	r18
 11a:	3f 93       	push	r19
 11c:	4f 93       	push	r20
 11e:	5f 93       	push	r21
 120:	6f 93       	push	r22
 122:	7f 93       	push	r23
 124:	8f 93       	push	r24
 126:	9f 93       	push	r25
 128:	af 93       	push	r26
 12a:	bf 93       	push	r27
 12c:	ef 93       	push	r30
 12e:	ff 93       	push	r31
	if (state==0){
 130:	80 91 0e 01 	lds	r24, 0x010E	; 0x80010e <state>
 134:	81 11       	cpse	r24, r1
 136:	06 c0       	rjmp	.+12     	; 0x144 <__vector_3+0x36>
		if (!(PINB & (1 << PINB4)))   // Botón presionado
 138:	1c 99       	sbic	0x03, 4	; 3
 13a:	26 c0       	rjmp	.+76     	; 0x188 <__vector_3+0x7a>
		{
			state=1; //Estado donde inicia la cuenta regresiva
 13c:	81 e0       	ldi	r24, 0x01	; 1
 13e:	80 93 0e 01 	sts	0x010E, r24	; 0x80010e <state>
 142:	22 c0       	rjmp	.+68     	; 0x188 <__vector_3+0x7a>
		}
	}
	else if (state==1){
 144:	80 91 0e 01 	lds	r24, 0x010E	; 0x80010e <state>
 148:	81 30       	cpi	r24, 0x01	; 1
 14a:	89 f4       	brne	.+34     	; 0x16e <__vector_3+0x60>
		//Reiniciar el contador de segundos mientras aun no llegue a cero
		if (display>0){
 14c:	80 91 00 01 	lds	r24, 0x0100	; 0x800100 <__DATA_REGION_ORIGIN__>
 150:	88 23       	and	r24, r24
 152:	d1 f0       	breq	.+52     	; 0x188 <__vector_3+0x7a>
			if (!(PINB & (1 << PINB4)))   // Botón presionado
 154:	1c 99       	sbic	0x03, 4	; 3
 156:	18 c0       	rjmp	.+48     	; 0x188 <__vector_3+0x7a>
			{
				state=1; //Estado donde inicia la cuenta regresiva
 158:	81 e0       	ldi	r24, 0x01	; 1
 15a:	80 93 0e 01 	sts	0x010E, r24	; 0x80010e <state>
				display=5;
 15e:	85 e0       	ldi	r24, 0x05	; 5
 160:	80 93 00 01 	sts	0x0100, r24	; 0x800100 <__DATA_REGION_ORIGIN__>
				display7seg_write(display);  
 164:	80 91 00 01 	lds	r24, 0x0100	; 0x800100 <__DATA_REGION_ORIGIN__>
 168:	0e 94 58 00 	call	0xb0	; 0xb0 <display7seg_write>
 16c:	0d c0       	rjmp	.+26     	; 0x188 <__vector_3+0x7a>
				
			}
		}
	}
	
	else if (state==3 || state==4){ //este es para reiniciar el juego una vez ya acabado
 16e:	80 91 0e 01 	lds	r24, 0x010E	; 0x80010e <state>
 172:	83 30       	cpi	r24, 0x03	; 3
 174:	21 f0       	breq	.+8      	; 0x17e <__vector_3+0x70>
 176:	80 91 0e 01 	lds	r24, 0x010E	; 0x80010e <state>
 17a:	84 30       	cpi	r24, 0x04	; 4
 17c:	29 f4       	brne	.+10     	; 0x188 <__vector_3+0x7a>
		if (!(PINB & (1 << PINB4)))   // Botón presionado
 17e:	1c 99       	sbic	0x03, 4	; 3
 180:	03 c0       	rjmp	.+6      	; 0x188 <__vector_3+0x7a>
		{
			state=1; //Estado donde inicia la cuenta regresiva
 182:	81 e0       	ldi	r24, 0x01	; 1
 184:	80 93 0e 01 	sts	0x010E, r24	; 0x80010e <state>
		}
	}
	
}
 188:	ff 91       	pop	r31
 18a:	ef 91       	pop	r30
 18c:	bf 91       	pop	r27
 18e:	af 91       	pop	r26
 190:	9f 91       	pop	r25
 192:	8f 91       	pop	r24
 194:	7f 91       	pop	r23
 196:	6f 91       	pop	r22
 198:	5f 91       	pop	r21
 19a:	4f 91       	pop	r20
 19c:	3f 91       	pop	r19
 19e:	2f 91       	pop	r18
 1a0:	0f 90       	pop	r0
 1a2:	0f be       	out	0x3f, r0	; 63
 1a4:	0f 90       	pop	r0
 1a6:	1f 90       	pop	r1
 1a8:	18 95       	reti

000001aa <__vector_4>:

ISR(PCINT1_vect)
{
 1aa:	1f 92       	push	r1
 1ac:	0f 92       	push	r0
 1ae:	0f b6       	in	r0, 0x3f	; 63
 1b0:	0f 92       	push	r0
 1b2:	11 24       	eor	r1, r1
 1b4:	8f 93       	push	r24
	if (state==2){
 1b6:	80 91 0e 01 	lds	r24, 0x010E	; 0x80010e <state>
 1ba:	82 30       	cpi	r24, 0x02	; 2
 1bc:	71 f4       	brne	.+28     	; 0x1da <__vector_4+0x30>
		if (!(PINC & (1 << PINC4)))
 1be:	34 99       	sbic	0x06, 4	; 6
 1c0:	05 c0       	rjmp	.+10     	; 0x1cc <__vector_4+0x22>
		{
			contador1++; // Acción cuando A4 se presiona
 1c2:	80 91 0c 01 	lds	r24, 0x010C	; 0x80010c <contador1>
 1c6:	8f 5f       	subi	r24, 0xFF	; 255
 1c8:	80 93 0c 01 	sts	0x010C, r24	; 0x80010c <contador1>
		}

		if (!(PINC & (1 << PINC5)))
 1cc:	35 99       	sbic	0x06, 5	; 6
 1ce:	05 c0       	rjmp	.+10     	; 0x1da <__vector_4+0x30>
		{
			contador2++; // Acción cuando A5 se presiona
 1d0:	80 91 0b 01 	lds	r24, 0x010B	; 0x80010b <contador2>
 1d4:	8f 5f       	subi	r24, 0xFF	; 255
 1d6:	80 93 0b 01 	sts	0x010B, r24	; 0x80010b <contador2>
		}
	}
}
 1da:	8f 91       	pop	r24
 1dc:	0f 90       	pop	r0
 1de:	0f be       	out	0x3f, r0	; 63
 1e0:	0f 90       	pop	r0
 1e2:	1f 90       	pop	r1
 1e4:	18 95       	reti

000001e6 <setup_timer0>:
}

// ===== Timer0 =====
void setup_timer0(void)
{
	TCCR0A = 0x00;                         // Modo NORMAL
 1e6:	14 bc       	out	0x24, r1	; 36
	TCCR0B = (1 << CS02) | (1 << CS00);    // Prescaler 1024
 1e8:	85 e0       	ldi	r24, 0x05	; 5
 1ea:	85 bd       	out	0x25, r24	; 37
	TCNT0  = 12;                           // Precarga
 1ec:	8c e0       	ldi	r24, 0x0C	; 12
 1ee:	86 bd       	out	0x26, r24	; 38
	TIMSK0 |= (1 << TOIE0);                // Interrupción overflow
 1f0:	ee e6       	ldi	r30, 0x6E	; 110
 1f2:	f0 e0       	ldi	r31, 0x00	; 0
 1f4:	80 81       	ld	r24, Z
 1f6:	81 60       	ori	r24, 0x01	; 1
 1f8:	80 83       	st	Z, r24
 1fa:	08 95       	ret

000001fc <setup>:
}

// ===== Subrutinas =====
void setup(void)
{
	cli();
 1fc:	f8 94       	cli

	CLKPR = (1 << CLKPCE);
 1fe:	e1 e6       	ldi	r30, 0x61	; 97
 200:	f0 e0       	ldi	r31, 0x00	; 0
 202:	80 e8       	ldi	r24, 0x80	; 128
 204:	80 83       	st	Z, r24
	CLKPR = (1 << CLKPS2);          // Prescaler CPU = 16
 206:	84 e0       	ldi	r24, 0x04	; 4
 208:	80 83       	st	Z, r24
	//Puerto B
	DDRB |= (1 << PORTB0) | (1 << PORTB1) | (1 << PORTB2) | (1 << PORTB3); //Salidas
 20a:	84 b1       	in	r24, 0x04	; 4
 20c:	8f 60       	ori	r24, 0x0F	; 15
 20e:	84 b9       	out	0x04, r24	; 4
	DDRB &= ~((1 << PORTB4)|(1<<PORTB5));
 210:	84 b1       	in	r24, 0x04	; 4
 212:	8f 7c       	andi	r24, 0xCF	; 207
 214:	84 b9       	out	0x04, r24	; 4
	PORTB |= (1 << PORTB4)|(1<<PORTB5);         // Pull-up botón
 216:	85 b1       	in	r24, 0x05	; 5
 218:	80 63       	ori	r24, 0x30	; 48
 21a:	85 b9       	out	0x05, r24	; 5
	PORTB &= ~((1 << PORTB0) | (1 << PORTB1) | (1 << PORTB2) | (1 << PORTB3));
 21c:	85 b1       	in	r24, 0x05	; 5
 21e:	80 7f       	andi	r24, 0xF0	; 240
 220:	85 b9       	out	0x05, r24	; 5
	
	PCICR  |= (1 << PCIE0);
 222:	e8 e6       	ldi	r30, 0x68	; 104
 224:	f0 e0       	ldi	r31, 0x00	; 0
 226:	80 81       	ld	r24, Z
 228:	81 60       	ori	r24, 0x01	; 1
 22a:	80 83       	st	Z, r24
	PCMSK0 |= (1 << PCINT4)|(1<<PCINT5);
 22c:	ab e6       	ldi	r26, 0x6B	; 107
 22e:	b0 e0       	ldi	r27, 0x00	; 0
 230:	8c 91       	ld	r24, X
 232:	80 63       	ori	r24, 0x30	; 48
 234:	8c 93       	st	X, r24

	//Puerto C
	DDRC &= ~((1 << DDC4) | (1 << DDC5));   // A4 y A5 como entrada
 236:	87 b1       	in	r24, 0x07	; 7
 238:	8f 7c       	andi	r24, 0xCF	; 207
 23a:	87 b9       	out	0x07, r24	; 7
	DDRC |= (1<<PORTC0)|(1<<PORTC1)|(1<<PORTC2)|(1<<PORTC3); //Salidas
 23c:	87 b1       	in	r24, 0x07	; 7
 23e:	8f 60       	ori	r24, 0x0F	; 15
 240:	87 b9       	out	0x07, r24	; 7
	PORTC |= (1 << PORTC4) | (1 << PORTC5); // Pull-up interno
 242:	88 b1       	in	r24, 0x08	; 8
 244:	80 63       	ori	r24, 0x30	; 48
 246:	88 b9       	out	0x08, r24	; 8
	PORTC &= ~((1<<PORTC0)|(1<<PORTC1)|(1<<PORTC2)|(1<<PORTC3));
 248:	88 b1       	in	r24, 0x08	; 8
 24a:	80 7f       	andi	r24, 0xF0	; 240
 24c:	88 b9       	out	0x08, r24	; 8
	PCICR |= (1 << PCIE1);   // Habilita PCINT[14:8] (Puerto C)
 24e:	80 81       	ld	r24, Z
 250:	82 60       	ori	r24, 0x02	; 2
 252:	80 83       	st	Z, r24
	PCMSK1 |= (1 << PCINT12) | (1 << PCINT13);
 254:	ec e6       	ldi	r30, 0x6C	; 108
 256:	f0 e0       	ldi	r31, 0x00	; 0
 258:	80 81       	ld	r24, Z
 25a:	80 63       	ori	r24, 0x30	; 48
 25c:	80 83       	st	Z, r24

	
	//Puerto D
	DDRD = 0xFF;                    // Display en PORTD
 25e:	8f ef       	ldi	r24, 0xFF	; 255
 260:	8a b9       	out	0x0a, r24	; 10
	PORTD = 0x00;
 262:	1b b8       	out	0x0b, r1	; 11
	UCSR0B = 0x00;					//Apagar comunicación serial
 264:	10 92 c1 00 	sts	0x00C1, r1	; 0x8000c1 <__TEXT_REGION_LENGTH__+0x7f80c1>
	setup_timer0();
 268:	0e 94 f3 00 	call	0x1e6	; 0x1e6 <setup_timer0>

	sei();
 26c:	78 94       	sei
 26e:	08 95       	ret

00000270 <main>:
}

// ===== Función principal =====
int main(void)
{
    setup();
 270:	0e 94 fe 00 	call	0x1fc	; 0x1fc <setup>

    display7seg_init(&PORTD);      // Inicializar display con puntero
 274:	8b e2       	ldi	r24, 0x2B	; 43
 276:	90 e0       	ldi	r25, 0x00	; 0
 278:	0e 94 53 00 	call	0xa6	; 0xa6 <display7seg_init>
    display7seg_write(display);    // Mostrar valor inicial
 27c:	80 91 00 01 	lds	r24, 0x0100	; 0x800100 <__DATA_REGION_ORIGIN__>
 280:	0e 94 58 00 	call	0xb0	; 0xb0 <display7seg_write>
	
    while (1)
    {
		switch (state){
 284:	80 91 0e 01 	lds	r24, 0x010E	; 0x80010e <state>
 288:	82 30       	cpi	r24, 0x02	; 2
 28a:	c1 f0       	breq	.+48     	; 0x2bc <main+0x4c>
 28c:	38 f0       	brcs	.+14     	; 0x29c <main+0x2c>
 28e:	83 30       	cpi	r24, 0x03	; 3
 290:	09 f4       	brne	.+2      	; 0x294 <main+0x24>
 292:	55 c0       	rjmp	.+170    	; 0x33e <main+0xce>
 294:	84 30       	cpi	r24, 0x04	; 4
 296:	09 f4       	brne	.+2      	; 0x29a <main+0x2a>
 298:	5e c0       	rjmp	.+188    	; 0x356 <main+0xe6>
 29a:	69 c0       	rjmp	.+210    	; 0x36e <main+0xfe>
			case 0:
			case 1:
				display7seg_write(display);   // Mostrar valor actualizado
 29c:	80 91 00 01 	lds	r24, 0x0100	; 0x800100 <__DATA_REGION_ORIGIN__>
 2a0:	0e 94 58 00 	call	0xb0	; 0xb0 <display7seg_write>
				if (display == 0)
 2a4:	80 91 00 01 	lds	r24, 0x0100	; 0x800100 <__DATA_REGION_ORIGIN__>
 2a8:	81 11       	cpse	r24, r1
 2aa:	ec cf       	rjmp	.-40     	; 0x284 <main+0x14>
				{
					display7seg_write(display);
 2ac:	80 91 00 01 	lds	r24, 0x0100	; 0x800100 <__DATA_REGION_ORIGIN__>
 2b0:	0e 94 58 00 	call	0xb0	; 0xb0 <display7seg_write>
					state = 2;    // El contador llegó a cero ? inicia la carrera
 2b4:	82 e0       	ldi	r24, 0x02	; 2
 2b6:	80 93 0e 01 	sts	0x010E, r24	; 0x80010e <state>
 2ba:	e4 cf       	rjmp	.-56     	; 0x284 <main+0x14>
				0100 ? 3 décadas
				1000 ? 4 décadas
				*/

				// ----- Jugador 1 (PORTB) -----
				if (contador1 == 0)
 2bc:	80 91 0c 01 	lds	r24, 0x010C	; 0x80010c <contador1>
 2c0:	81 11       	cpse	r24, r1
 2c2:	04 c0       	rjmp	.+8      	; 0x2cc <main+0x5c>
				{
					PORTB &= ~0x0F;   // LEDs apagados
 2c4:	85 b1       	in	r24, 0x05	; 5
 2c6:	80 7f       	andi	r24, 0xF0	; 240
 2c8:	85 b9       	out	0x05, r24	; 5
 2ca:	18 c0       	rjmp	.+48     	; 0x2fc <main+0x8c>
				}
				else
				{
					PORTB = (PORTB & 0xF0) | (1 << (contador1 - 1));
 2cc:	45 b1       	in	r20, 0x05	; 5
 2ce:	20 91 0c 01 	lds	r18, 0x010C	; 0x80010c <contador1>
 2d2:	30 e0       	ldi	r19, 0x00	; 0
 2d4:	21 50       	subi	r18, 0x01	; 1
 2d6:	31 09       	sbc	r19, r1
 2d8:	81 e0       	ldi	r24, 0x01	; 1
 2da:	90 e0       	ldi	r25, 0x00	; 0
 2dc:	02 c0       	rjmp	.+4      	; 0x2e2 <main+0x72>
 2de:	88 0f       	add	r24, r24
 2e0:	99 1f       	adc	r25, r25
 2e2:	2a 95       	dec	r18
 2e4:	e2 f7       	brpl	.-8      	; 0x2de <main+0x6e>
 2e6:	94 2f       	mov	r25, r20
 2e8:	90 7f       	andi	r25, 0xF0	; 240
 2ea:	89 2b       	or	r24, r25
 2ec:	85 b9       	out	0x05, r24	; 5
					if (contador1 == 4)
 2ee:	80 91 0c 01 	lds	r24, 0x010C	; 0x80010c <contador1>
 2f2:	84 30       	cpi	r24, 0x04	; 4
 2f4:	19 f4       	brne	.+6      	; 0x2fc <main+0x8c>
						state = 3;   // Jugador 1 gana
 2f6:	83 e0       	ldi	r24, 0x03	; 3
 2f8:	80 93 0e 01 	sts	0x010E, r24	; 0x80010e <state>
				}

				// ----- Jugador 2 (PORTC) -----
				if (contador2 == 0)
 2fc:	80 91 0b 01 	lds	r24, 0x010B	; 0x80010b <contador2>
 300:	81 11       	cpse	r24, r1
 302:	04 c0       	rjmp	.+8      	; 0x30c <main+0x9c>
				{
					PORTC &= ~0x0F;   // LEDs apagados
 304:	88 b1       	in	r24, 0x08	; 8
 306:	80 7f       	andi	r24, 0xF0	; 240
 308:	88 b9       	out	0x08, r24	; 8
 30a:	bc cf       	rjmp	.-136    	; 0x284 <main+0x14>
				}
				else
				{
					PORTC = (PORTC & 0xF0) | (1 << (contador2 - 1));
 30c:	48 b1       	in	r20, 0x08	; 8
 30e:	20 91 0b 01 	lds	r18, 0x010B	; 0x80010b <contador2>
 312:	30 e0       	ldi	r19, 0x00	; 0
 314:	21 50       	subi	r18, 0x01	; 1
 316:	31 09       	sbc	r19, r1
 318:	81 e0       	ldi	r24, 0x01	; 1
 31a:	90 e0       	ldi	r25, 0x00	; 0
 31c:	02 c0       	rjmp	.+4      	; 0x322 <main+0xb2>
 31e:	88 0f       	add	r24, r24
 320:	99 1f       	adc	r25, r25
 322:	2a 95       	dec	r18
 324:	e2 f7       	brpl	.-8      	; 0x31e <main+0xae>
 326:	94 2f       	mov	r25, r20
 328:	90 7f       	andi	r25, 0xF0	; 240
 32a:	89 2b       	or	r24, r25
 32c:	88 b9       	out	0x08, r24	; 8
					if (contador2 == 4)
 32e:	80 91 0b 01 	lds	r24, 0x010B	; 0x80010b <contador2>
 332:	84 30       	cpi	r24, 0x04	; 4
 334:	09 f0       	breq	.+2      	; 0x338 <main+0xc8>
 336:	a6 cf       	rjmp	.-180    	; 0x284 <main+0x14>
						state = 4;   // Jugador 2 gana
 338:	80 93 0e 01 	sts	0x010E, r24	; 0x80010e <state>
 33c:	a3 cf       	rjmp	.-186    	; 0x284 <main+0x14>
				}
				break;

			case 3:
				PORTC &= ~0x0F;   // Apagar LEDs del perdedor
 33e:	88 b1       	in	r24, 0x08	; 8
 340:	80 7f       	andi	r24, 0xF0	; 240
 342:	88 b9       	out	0x08, r24	; 8
				PORTB |= 0x0F;    // Encender LEDs del ganador
 344:	85 b1       	in	r24, 0x05	; 5
 346:	8f 60       	ori	r24, 0x0F	; 15
 348:	85 b9       	out	0x05, r24	; 5
				winner = 1;
 34a:	81 e0       	ldi	r24, 0x01	; 1
 34c:	80 93 0a 01 	sts	0x010A, r24	; 0x80010a <winner>
				display7seg_write(winner);
 350:	0e 94 58 00 	call	0xb0	; 0xb0 <display7seg_write>
				break;
 354:	97 cf       	rjmp	.-210    	; 0x284 <main+0x14>

			case 4:
				PORTB &= ~0x0F;   // Apagar LEDs del perdedor
 356:	85 b1       	in	r24, 0x05	; 5
 358:	80 7f       	andi	r24, 0xF0	; 240
 35a:	85 b9       	out	0x05, r24	; 5
				PORTC |= 0x0F;    // Encender LEDs del ganador
 35c:	88 b1       	in	r24, 0x08	; 8
 35e:	8f 60       	ori	r24, 0x0F	; 15
 360:	88 b9       	out	0x08, r24	; 8
				winner = 2;
 362:	82 e0       	ldi	r24, 0x02	; 2
 364:	80 93 0a 01 	sts	0x010A, r24	; 0x80010a <winner>
				display7seg_write(winner);
 368:	0e 94 58 00 	call	0xb0	; 0xb0 <display7seg_write>
				break;
 36c:	8b cf       	rjmp	.-234    	; 0x284 <main+0x14>

			default:
				state = 0;        // Estado seguro
 36e:	10 92 0e 01 	sts	0x010E, r1	; 0x80010e <state>
				break;
 372:	88 cf       	rjmp	.-240    	; 0x284 <main+0x14>

00000374 <_exit>:
 374:	f8 94       	cli

00000376 <__stop_program>:
 376:	ff cf       	rjmp	.-2      	; 0x376 <__stop_program>
