
Proyecto_red_de_sensores.elf:     file format elf32-avr

Sections:
Idx Name          Size      VMA       LMA       File off  Algn
  0 .data         000000e2  00800100  00000c0c  00000ca0  2**0
                  CONTENTS, ALLOC, LOAD, DATA
  1 .text         00000c0c  00000000  00000000  00000094  2**1
                  CONTENTS, ALLOC, LOAD, READONLY, CODE
  2 .bss          00000002  008001e2  008001e2  00000d82  2**0
                  ALLOC
  3 .comment      00000030  00000000  00000000  00000d82  2**0
                  CONTENTS, READONLY
  4 .note.gnu.avr.deviceinfo 00000040  00000000  00000000  00000db4  2**2
                  CONTENTS, READONLY
  5 .debug_aranges 00000138  00000000  00000000  00000df4  2**0
                  CONTENTS, READONLY, DEBUGGING
  6 .debug_info   0000158c  00000000  00000000  00000f2c  2**0
                  CONTENTS, READONLY, DEBUGGING
  7 .debug_abbrev 00000aed  00000000  00000000  000024b8  2**0
                  CONTENTS, READONLY, DEBUGGING
  8 .debug_line   00000cca  00000000  00000000  00002fa5  2**0
                  CONTENTS, READONLY, DEBUGGING
  9 .debug_frame  000002b4  00000000  00000000  00003c70  2**2
                  CONTENTS, READONLY, DEBUGGING
 10 .debug_str    00000648  00000000  00000000  00003f24  2**0
                  CONTENTS, READONLY, DEBUGGING
 11 .debug_loc    000009c6  00000000  00000000  0000456c  2**0
                  CONTENTS, READONLY, DEBUGGING
 12 .debug_ranges 000000f8  00000000  00000000  00004f32  2**0
                  CONTENTS, READONLY, DEBUGGING

Disassembly of section .text:

00000000 <__vectors>:
   0:	0c 94 34 00 	jmp	0x68	; 0x68 <__ctors_end>
   4:	0c 94 51 00 	jmp	0xa2	; 0xa2 <__bad_interrupt>
   8:	0c 94 51 00 	jmp	0xa2	; 0xa2 <__bad_interrupt>
   c:	0c 94 51 00 	jmp	0xa2	; 0xa2 <__bad_interrupt>
  10:	0c 94 51 00 	jmp	0xa2	; 0xa2 <__bad_interrupt>
  14:	0c 94 51 00 	jmp	0xa2	; 0xa2 <__bad_interrupt>
  18:	0c 94 51 00 	jmp	0xa2	; 0xa2 <__bad_interrupt>
  1c:	0c 94 51 00 	jmp	0xa2	; 0xa2 <__bad_interrupt>
  20:	0c 94 51 00 	jmp	0xa2	; 0xa2 <__bad_interrupt>
  24:	0c 94 51 00 	jmp	0xa2	; 0xa2 <__bad_interrupt>
  28:	0c 94 51 00 	jmp	0xa2	; 0xa2 <__bad_interrupt>
  2c:	0c 94 51 00 	jmp	0xa2	; 0xa2 <__bad_interrupt>
  30:	0c 94 51 00 	jmp	0xa2	; 0xa2 <__bad_interrupt>
  34:	0c 94 51 00 	jmp	0xa2	; 0xa2 <__bad_interrupt>
  38:	0c 94 51 00 	jmp	0xa2	; 0xa2 <__bad_interrupt>
  3c:	0c 94 51 00 	jmp	0xa2	; 0xa2 <__bad_interrupt>
  40:	0c 94 51 00 	jmp	0xa2	; 0xa2 <__bad_interrupt>
  44:	0c 94 51 00 	jmp	0xa2	; 0xa2 <__bad_interrupt>
  48:	0c 94 51 00 	jmp	0xa2	; 0xa2 <__bad_interrupt>
  4c:	0c 94 51 00 	jmp	0xa2	; 0xa2 <__bad_interrupt>
  50:	0c 94 51 00 	jmp	0xa2	; 0xa2 <__bad_interrupt>
  54:	0c 94 51 00 	jmp	0xa2	; 0xa2 <__bad_interrupt>
  58:	0c 94 51 00 	jmp	0xa2	; 0xa2 <__bad_interrupt>
  5c:	0c 94 51 00 	jmp	0xa2	; 0xa2 <__bad_interrupt>
  60:	0c 94 51 00 	jmp	0xa2	; 0xa2 <__bad_interrupt>
  64:	0c 94 51 00 	jmp	0xa2	; 0xa2 <__bad_interrupt>

00000068 <__ctors_end>:
  68:	11 24       	eor	r1, r1
  6a:	1f be       	out	0x3f, r1	; 63
  6c:	cf ef       	ldi	r28, 0xFF	; 255
  6e:	d8 e0       	ldi	r29, 0x08	; 8
  70:	de bf       	out	0x3e, r29	; 62
  72:	cd bf       	out	0x3d, r28	; 61

00000074 <__do_copy_data>:
  74:	11 e0       	ldi	r17, 0x01	; 1
  76:	a0 e0       	ldi	r26, 0x00	; 0
  78:	b1 e0       	ldi	r27, 0x01	; 1
  7a:	ec e0       	ldi	r30, 0x0C	; 12
  7c:	fc e0       	ldi	r31, 0x0C	; 12
  7e:	02 c0       	rjmp	.+4      	; 0x84 <__do_copy_data+0x10>
  80:	05 90       	lpm	r0, Z+
  82:	0d 92       	st	X+, r0
  84:	a2 3e       	cpi	r26, 0xE2	; 226
  86:	b1 07       	cpc	r27, r17
  88:	d9 f7       	brne	.-10     	; 0x80 <__do_copy_data+0xc>

0000008a <__do_clear_bss>:
  8a:	21 e0       	ldi	r18, 0x01	; 1
  8c:	a2 ee       	ldi	r26, 0xE2	; 226
  8e:	b1 e0       	ldi	r27, 0x01	; 1
  90:	01 c0       	rjmp	.+2      	; 0x94 <.do_clear_bss_start>

00000092 <.do_clear_bss_loop>:
  92:	1d 92       	st	X+, r1

00000094 <.do_clear_bss_start>:
  94:	a4 3e       	cpi	r26, 0xE4	; 228
  96:	b2 07       	cpc	r27, r18
  98:	e1 f7       	brne	.-8      	; 0x92 <.do_clear_bss_loop>
  9a:	0e 94 79 03 	call	0x6f2	; 0x6f2 <main>
  9e:	0c 94 04 06 	jmp	0xc08	; 0xc08 <_exit>

000000a2 <__bad_interrupt>:
  a2:	0c 94 00 00 	jmp	0	; 0x0 <__vectors>

000000a6 <I2C_init_Master>:
	
	TWAR = address << 1;
	
	//Se habilita la interfaz, ACK automatico, se habilita la iSR
	
	TWCR = (1<<TWEA)|(1<<TWEN)|(1<<TWIE);
  a6:	cf 93       	push	r28
  a8:	c8 2f       	mov	r28, r24
  aa:	9a 01       	movw	r18, r20
  ac:	ab 01       	movw	r20, r22
  ae:	87 b1       	in	r24, 0x07	; 7
  b0:	8f 7c       	andi	r24, 0xCF	; 207
  b2:	87 b9       	out	0x07, r24	; 7
  b4:	c4 30       	cpi	r28, 0x04	; 4
  b6:	79 f0       	breq	.+30     	; 0xd6 <I2C_init_Master+0x30>
  b8:	18 f4       	brcc	.+6      	; 0xc0 <I2C_init_Master+0x1a>
  ba:	c1 30       	cpi	r28, 0x01	; 1
  bc:	31 f0       	breq	.+12     	; 0xca <I2C_init_Master+0x24>
  be:	23 c0       	rjmp	.+70     	; 0x106 <I2C_init_Master+0x60>
  c0:	c0 31       	cpi	r28, 0x10	; 16
  c2:	91 f0       	breq	.+36     	; 0xe8 <I2C_init_Master+0x42>
  c4:	c0 34       	cpi	r28, 0x40	; 64
  c6:	c9 f0       	breq	.+50     	; 0xfa <I2C_init_Master+0x54>
  c8:	1e c0       	rjmp	.+60     	; 0x106 <I2C_init_Master+0x60>
  ca:	e9 eb       	ldi	r30, 0xB9	; 185
  cc:	f0 e0       	ldi	r31, 0x00	; 0
  ce:	80 81       	ld	r24, Z
  d0:	8c 7f       	andi	r24, 0xFC	; 252
  d2:	80 83       	st	Z, r24
  d4:	1d c0       	rjmp	.+58     	; 0x110 <I2C_init_Master+0x6a>
  d6:	e9 eb       	ldi	r30, 0xB9	; 185
  d8:	f0 e0       	ldi	r31, 0x00	; 0
  da:	80 81       	ld	r24, Z
  dc:	8d 7f       	andi	r24, 0xFD	; 253
  de:	80 83       	st	Z, r24
  e0:	80 81       	ld	r24, Z
  e2:	81 60       	ori	r24, 0x01	; 1
  e4:	80 83       	st	Z, r24
  e6:	14 c0       	rjmp	.+40     	; 0x110 <I2C_init_Master+0x6a>
  e8:	e9 eb       	ldi	r30, 0xB9	; 185
  ea:	f0 e0       	ldi	r31, 0x00	; 0
  ec:	80 81       	ld	r24, Z
  ee:	8e 7f       	andi	r24, 0xFE	; 254
  f0:	80 83       	st	Z, r24
  f2:	80 81       	ld	r24, Z
  f4:	82 60       	ori	r24, 0x02	; 2
  f6:	80 83       	st	Z, r24
  f8:	0b c0       	rjmp	.+22     	; 0x110 <I2C_init_Master+0x6a>
  fa:	e9 eb       	ldi	r30, 0xB9	; 185
  fc:	f0 e0       	ldi	r31, 0x00	; 0
  fe:	80 81       	ld	r24, Z
 100:	83 60       	ori	r24, 0x03	; 3
 102:	80 83       	st	Z, r24
 104:	05 c0       	rjmp	.+10     	; 0x110 <I2C_init_Master+0x6a>
 106:	e9 eb       	ldi	r30, 0xB9	; 185
 108:	f0 e0       	ldi	r31, 0x00	; 0
 10a:	80 81       	ld	r24, Z
 10c:	8c 7f       	andi	r24, 0xFC	; 252
 10e:	80 83       	st	Z, r24
 110:	60 e0       	ldi	r22, 0x00	; 0
 112:	74 e2       	ldi	r23, 0x24	; 36
 114:	84 ef       	ldi	r24, 0xF4	; 244
 116:	90 e0       	ldi	r25, 0x00	; 0
 118:	0e 94 d3 05 	call	0xba6	; 0xba6 <__udivmodsi4>
 11c:	ca 01       	movw	r24, r20
 11e:	b9 01       	movw	r22, r18
 120:	60 51       	subi	r22, 0x10	; 16
 122:	71 09       	sbc	r23, r1
 124:	81 09       	sbc	r24, r1
 126:	91 09       	sbc	r25, r1
 128:	2c 2f       	mov	r18, r28
 12a:	30 e0       	ldi	r19, 0x00	; 0
 12c:	22 0f       	add	r18, r18
 12e:	33 1f       	adc	r19, r19
 130:	03 2e       	mov	r0, r19
 132:	00 0c       	add	r0, r0
 134:	44 0b       	sbc	r20, r20
 136:	55 0b       	sbc	r21, r21
 138:	0e 94 d3 05 	call	0xba6	; 0xba6 <__udivmodsi4>
 13c:	20 93 b8 00 	sts	0x00B8, r18	; 0x8000b8 <__TEXT_REGION_LENGTH__+0x7f80b8>
 140:	ec eb       	ldi	r30, 0xBC	; 188
 142:	f0 e0       	ldi	r31, 0x00	; 0
 144:	80 81       	ld	r24, Z
 146:	84 60       	ori	r24, 0x04	; 4
 148:	80 83       	st	Z, r24
 14a:	cf 91       	pop	r28
 14c:	08 95       	ret

0000014e <I2C_Start>:
}

//Funcion para iniciar conversacion (el Master Habla)
uint8_t I2C_Start(void){
	TWCR = (1<<TWINT)|(1<<TWSTA)|(1<<TWEN);	//Trabaja en modo master, bandera de interrupcion y condicion de inicio.
 14e:	84 ea       	ldi	r24, 0xA4	; 164
 150:	80 93 bc 00 	sts	0x00BC, r24	; 0x8000bc <__TEXT_REGION_LENGTH__+0x7f80bc>
	/*IMPORTANTE
		Lo normal con comunicacion I2C es que el maestro este polliando y al esclavo se utilice las interrupciones.
	*/
	while (!(TWCR&(1<<TWINT)));	//Esperamos que ocurra evento con la bandera de TWCR
 154:	80 91 bc 00 	lds	r24, 0x00BC	; 0x8000bc <__TEXT_REGION_LENGTH__+0x7f80bc>
 158:	88 23       	and	r24, r24
 15a:	e4 f7       	brge	.-8      	; 0x154 <I2C_Start+0x6>
	writeString("Esperando a que inicie");
 15c:	80 e1       	ldi	r24, 0x10	; 16
 15e:	91 e0       	ldi	r25, 0x01	; 1
 160:	0e 94 9c 03 	call	0x738	; 0x738 <writeString>
	return ((TWSR & 0xF8)==0x08);	//Nos quedamos con los bits de estado
 164:	90 91 b9 00 	lds	r25, 0x00B9	; 0x8000b9 <__TEXT_REGION_LENGTH__+0x7f80b9>
 168:	98 7f       	andi	r25, 0xF8	; 248
 16a:	81 e0       	ldi	r24, 0x01	; 1
 16c:	98 30       	cpi	r25, 0x08	; 8
 16e:	09 f0       	breq	.+2      	; 0x172 <I2C_Start+0x24>
 170:	80 e0       	ldi	r24, 0x00	; 0
	/*Porque 0x08? Porque ese es el comando o el codigo de estado que indica que se envio al condicion de inicio.
	  Si se envio la condicion de inicio entonces esta funcion debe regresar un 1.
	*/
}				
 172:	08 95       	ret

00000174 <I2C_repeatedStart>:

//Funcion para seguir conversacion (el master escucha)					
uint8_t I2C_repeatedStart(void){
	TWCR = (1<<TWINT)|(1<<TWSTA)|(1<<TWEN);	//Trabaja en modo master, bandera de interrupcion y condicion de inicio.
 174:	84 ea       	ldi	r24, 0xA4	; 164
 176:	80 93 bc 00 	sts	0x00BC, r24	; 0x8000bc <__TEXT_REGION_LENGTH__+0x7f80bc>
	
	while (!(TWCR&(1<<TWINT)));	//Esperamos que ocurra evento con la bandera de TWCR
 17a:	80 91 bc 00 	lds	r24, 0x00BC	; 0x8000bc <__TEXT_REGION_LENGTH__+0x7f80bc>
 17e:	88 23       	and	r24, r24
 180:	e4 f7       	brge	.-8      	; 0x17a <I2C_repeatedStart+0x6>
	
	return ((TWSR & 0xF8)==0x10);	//Nos quedamos con los bits de estado
 182:	90 91 b9 00 	lds	r25, 0x00B9	; 0x8000b9 <__TEXT_REGION_LENGTH__+0x7f80b9>
 186:	98 7f       	andi	r25, 0xF8	; 248
 188:	81 e0       	ldi	r24, 0x01	; 1
 18a:	90 31       	cpi	r25, 0x10	; 16
 18c:	09 f0       	breq	.+2      	; 0x190 <I2C_repeatedStart+0x1c>
 18e:	80 e0       	ldi	r24, 0x00	; 0
	/*Porque 0x10? Porque ese es el comando o el codigo de estado que indica que se envio al condicion de inicio.
	  Si se envio la condicion de inicio entonces esta funcion debe regresar un 1.
	*/
	
}	
 190:	08 95       	ret

00000192 <I2C_stop>:

//Funcion para parar comunicacion			
void I2C_stop(void){
	TWCR = (1<<TWINT)|(1<<TWSTO)|(1<<TWEN);	//Inicia la secuencia de parada
 192:	84 e9       	ldi	r24, 0x94	; 148
 194:	80 93 bc 00 	sts	0x00BC, r24	; 0x8000bc <__TEXT_REGION_LENGTH__+0x7f80bc>
	
	while (TWCR & (1<<TWSTO)){
 198:	04 c0       	rjmp	.+8      	; 0x1a2 <I2C_stop+0x10>
		writeString("Esperando a limpiar el bit\n");
 19a:	87 e2       	ldi	r24, 0x27	; 39
 19c:	91 e0       	ldi	r25, 0x01	; 1
 19e:	0e 94 9c 03 	call	0x738	; 0x738 <writeString>

//Funcion para parar comunicacion			
void I2C_stop(void){
	TWCR = (1<<TWINT)|(1<<TWSTO)|(1<<TWEN);	//Inicia la secuencia de parada
	
	while (TWCR & (1<<TWSTO)){
 1a2:	80 91 bc 00 	lds	r24, 0x00BC	; 0x8000bc <__TEXT_REGION_LENGTH__+0x7f80bc>
 1a6:	84 fd       	sbrc	r24, 4
 1a8:	f8 cf       	rjmp	.-16     	; 0x19a <I2C_stop+0x8>
		writeString("Esperando a limpiar el bit\n");
	}
}	
 1aa:	08 95       	ret

000001ac <I2C_write>:

//Funcion para escribir									
uint8_t I2C_write(uint8_t dato){
	uint8_t estado;
	
	TWDR=dato;		//Cargo el dato
 1ac:	80 93 bb 00 	sts	0x00BB, r24	; 0x8000bb <__TEXT_REGION_LENGTH__+0x7f80bb>
	TWCR=(1<<TWEN)|(1<<TWINT);	//Inicia la secuencia de envio limpiando la bandera y habilitando la interface
 1b0:	84 e8       	ldi	r24, 0x84	; 132
 1b2:	80 93 bc 00 	sts	0x00BC, r24	; 0x8000bc <__TEXT_REGION_LENGTH__+0x7f80bc>
	
	while(!(TWCR&(1<<TWINT)));	//Esperamos al flag TWINT
 1b6:	80 91 bc 00 	lds	r24, 0x00BC	; 0x8000bc <__TEXT_REGION_LENGTH__+0x7f80bc>
 1ba:	88 23       	and	r24, r24
 1bc:	e4 f7       	brge	.-8      	; 0x1b6 <I2C_write+0xa>
	estado = TWSR & 0xF8;		//Limpiamos para quedarnos unicamente con los bits de estados
 1be:	80 91 b9 00 	lds	r24, 0x00B9	; 0x8000b9 <__TEXT_REGION_LENGTH__+0x7f80b9>
 1c2:	88 7f       	andi	r24, 0xF8	; 248
	//Verificar si se le envio una SLA+W con ACK o un dato con ACK
	//Verificar comandos en datasheet o en la presentacion de I2C
	if (estado == 0x18 || estado == 0x28){
 1c4:	88 31       	cpi	r24, 0x18	; 24
 1c6:	21 f0       	breq	.+8      	; 0x1d0 <I2C_write+0x24>
 1c8:	88 32       	cpi	r24, 0x28	; 40
 1ca:	19 f4       	brne	.+6      	; 0x1d2 <I2C_write+0x26>
		return 1;
 1cc:	81 e0       	ldi	r24, 0x01	; 1
 1ce:	08 95       	ret
 1d0:	81 e0       	ldi	r24, 0x01	; 1
	}else {
		return estado;
	}
	
	
}	
 1d2:	08 95       	ret

000001d4 <I2C_read>:

//funcion para leer dato			
uint8_t I2C_read(uint8_t *buffer, uint8_t ack){
 1d4:	fc 01       	movw	r30, r24
	uint8_t estado; 
	
	if (ack){
 1d6:	66 23       	and	r22, r22
 1d8:	21 f0       	breq	.+8      	; 0x1e2 <I2C_read+0xe>
		TWCR = (1<<TWINT)|(1<<TWEN)|(1<<TWEA);			//Habilitamos interface I2C con ack
 1da:	84 ec       	ldi	r24, 0xC4	; 196
 1dc:	80 93 bc 00 	sts	0x00BC, r24	; 0x8000bc <__TEXT_REGION_LENGTH__+0x7f80bc>
 1e0:	03 c0       	rjmp	.+6      	; 0x1e8 <I2C_read+0x14>
	}else {
		TWCR = (1<<TWINT)|(1<<TWEN);		//Habilitamos interface I2C sin ack
 1e2:	84 e8       	ldi	r24, 0x84	; 132
 1e4:	80 93 bc 00 	sts	0x00BC, r24	; 0x8000bc <__TEXT_REGION_LENGTH__+0x7f80bc>
	}
	//se utiliza el ack obligatoriamente si la interaccion con el slave va a ser mayor a 1 byte sino no es necesario.
	//(Se recomienda siempre usarla)
	
	while (!(TWCR&(1<<TWINT)));			//Esperar el flag
 1e8:	90 91 bc 00 	lds	r25, 0x00BC	; 0x8000bc <__TEXT_REGION_LENGTH__+0x7f80bc>
 1ec:	99 23       	and	r25, r25
 1ee:	e4 f7       	brge	.-8      	; 0x1e8 <I2C_read+0x14>
	
	estado = TWSR&0xF8;					//Nos quedamos con los bits de estado nuevamente
 1f0:	90 91 b9 00 	lds	r25, 0x00B9	; 0x8000b9 <__TEXT_REGION_LENGTH__+0x7f80b9>
 1f4:	98 7f       	andi	r25, 0xF8	; 248
	//Verificar si se recibio el dato ya sea con ACK o sin ACK
	if (ack && estado != 0x50) return 0;
 1f6:	66 23       	and	r22, r22
 1f8:	11 f0       	breq	.+4      	; 0x1fe <I2C_read+0x2a>
 1fa:	90 35       	cpi	r25, 0x50	; 80
 1fc:	49 f4       	brne	.+18     	; 0x210 <I2C_read+0x3c>
	if (!ack && estado != 0x58) return 0;
 1fe:	61 11       	cpse	r22, r1
 200:	02 c0       	rjmp	.+4      	; 0x206 <I2C_read+0x32>
 202:	98 35       	cpi	r25, 0x58	; 88
 204:	39 f4       	brne	.+14     	; 0x214 <I2C_read+0x40>
	
	*buffer = TWDR; //obtenemos los resultados en el registro de datos
 206:	80 91 bb 00 	lds	r24, 0x00BB	; 0x8000bb <__TEXT_REGION_LENGTH__+0x7f80bb>
 20a:	80 83       	st	Z, r24
	
	return 1;
 20c:	81 e0       	ldi	r24, 0x01	; 1
 20e:	08 95       	ret
	
	while (!(TWCR&(1<<TWINT)));			//Esperar el flag
	
	estado = TWSR&0xF8;					//Nos quedamos con los bits de estado nuevamente
	//Verificar si se recibio el dato ya sea con ACK o sin ACK
	if (ack && estado != 0x50) return 0;
 210:	80 e0       	ldi	r24, 0x00	; 0
 212:	08 95       	ret
	if (!ack && estado != 0x58) return 0;
 214:	80 e0       	ldi	r24, 0x00	; 0
	
	*buffer = TWDR; //obtenemos los resultados en el registro de datos
	
	return 1;
 216:	08 95       	ret

00000218 <dato_a_mostrar>:
*/
void dato_a_mostrar(char a)
{
	//PORTD = a;
	// Bits D0 y D1 ? PORTB0 y PORTB1
	PORTB = (PORTB & 0xFC) | (a & 0x03);
 218:	95 b1       	in	r25, 0x05	; 5
 21a:	9c 7f       	andi	r25, 0xFC	; 252
 21c:	28 2f       	mov	r18, r24
 21e:	23 70       	andi	r18, 0x03	; 3
 220:	92 2b       	or	r25, r18
 222:	95 b9       	out	0x05, r25	; 5

	// Bits D2–D7 ? PORTD2–PORTD7
	PORTD = (PORTD & 0x03) | (a & 0xFC);
 224:	9b b1       	in	r25, 0x0b	; 11
 226:	93 70       	andi	r25, 0x03	; 3
 228:	8c 7f       	andi	r24, 0xFC	; 252
 22a:	89 2b       	or	r24, r25
 22c:	8b b9       	out	0x0b, r24	; 11
 22e:	08 95       	ret

00000230 <inicio>:
}

//Para mandar un comando
void inicio(char a)
{
	PORTB &= ~(1<<PORTB2);  //RS = 0, se le indica que es modo comando
 230:	95 b1       	in	r25, 0x05	; 5
 232:	9b 7f       	andi	r25, 0xFB	; 251
 234:	95 b9       	out	0x05, r25	; 5
	dato_a_mostrar(a);
 236:	0e 94 0c 01 	call	0x218	; 0x218 <dato_a_mostrar>
	PORTB |= (1<<PORTB3);    // E = 1, se le indica que envie los datos
 23a:	85 b1       	in	r24, 0x05	; 5
 23c:	88 60       	ori	r24, 0x08	; 8
 23e:	85 b9       	out	0x05, r24	; 5
	#else
		//round up by default
		__ticks_dc = (uint32_t)(ceil(fabs(__tmp)));
	#endif

	__builtin_avr_delay_cycles(__ticks_dc);
 240:	8f e9       	ldi	r24, 0x9F	; 159
 242:	9f e0       	ldi	r25, 0x0F	; 15
 244:	01 97       	sbiw	r24, 0x01	; 1
 246:	f1 f7       	brne	.-4      	; 0x244 <inicio+0x14>
 248:	00 c0       	rjmp	.+0      	; 0x24a <inicio+0x1a>
 24a:	00 00       	nop
	_delay_ms(1);
	PORTB &= ~(1<<PORTB3);   // E = 0,  se le indica que se cierra el envio de datos
 24c:	85 b1       	in	r24, 0x05	; 5
 24e:	87 7f       	andi	r24, 0xF7	; 247
 250:	85 b9       	out	0x05, r24	; 5
 252:	8f e9       	ldi	r24, 0x9F	; 159
 254:	9f e0       	ldi	r25, 0x0F	; 15
 256:	01 97       	sbiw	r24, 0x01	; 1
 258:	f1 f7       	brne	.-4      	; 0x256 <inicio+0x26>
 25a:	00 c0       	rjmp	.+0      	; 0x25c <inicio+0x2c>
 25c:	00 00       	nop
 25e:	08 95       	ret

00000260 <Lcd_Init8bits>:
	_delay_ms(1);
}

void Lcd_Init8bits()
{
	PORTB &= ~(1<<PORTB2);   //RS = 0, se le indica que es modo comando
 260:	85 b1       	in	r24, 0x05	; 5
 262:	8b 7f       	andi	r24, 0xFB	; 251
 264:	85 b9       	out	0x05, r24	; 5
	PORTB &= ~(1<<PORTB3);   //E = 0
 266:	85 b1       	in	r24, 0x05	; 5
 268:	87 7f       	andi	r24, 0xF7	; 247
 26a:	85 b9       	out	0x05, r24	; 5
 26c:	2f ef       	ldi	r18, 0xFF	; 255
 26e:	89 ef       	ldi	r24, 0xF9	; 249
 270:	90 e0       	ldi	r25, 0x00	; 0
 272:	21 50       	subi	r18, 0x01	; 1
 274:	80 40       	sbci	r24, 0x00	; 0
 276:	90 40       	sbci	r25, 0x00	; 0
 278:	e1 f7       	brne	.-8      	; 0x272 <Lcd_Init8bits+0x12>
 27a:	00 c0       	rjmp	.+0      	; 0x27c <Lcd_Init8bits+0x1c>
 27c:	00 00       	nop
	_delay_ms(20);     //Peque?os delay que indica el fabricante del LCD
	inicio(0x30);     //Comando que se repite 3 veces, que indica el fabricante de la LCD
 27e:	80 e3       	ldi	r24, 0x30	; 48
 280:	0e 94 18 01 	call	0x230	; 0x230 <inicio>
 284:	8f e1       	ldi	r24, 0x1F	; 31
 286:	9e e4       	ldi	r25, 0x4E	; 78
 288:	01 97       	sbiw	r24, 0x01	; 1
 28a:	f1 f7       	brne	.-4      	; 0x288 <Lcd_Init8bits+0x28>
 28c:	00 c0       	rjmp	.+0      	; 0x28e <Lcd_Init8bits+0x2e>
 28e:	00 00       	nop
	_delay_ms(5);
	inicio(0x30);
 290:	80 e3       	ldi	r24, 0x30	; 48
 292:	0e 94 18 01 	call	0x230	; 0x230 <inicio>
 296:	8f e1       	ldi	r24, 0x1F	; 31
 298:	9e e4       	ldi	r25, 0x4E	; 78
 29a:	01 97       	sbiw	r24, 0x01	; 1
 29c:	f1 f7       	brne	.-4      	; 0x29a <Lcd_Init8bits+0x3a>
 29e:	00 c0       	rjmp	.+0      	; 0x2a0 <Lcd_Init8bits+0x40>
 2a0:	00 00       	nop
	_delay_ms(5);
	inicio(0x30);
 2a2:	80 e3       	ldi	r24, 0x30	; 48
 2a4:	0e 94 18 01 	call	0x230	; 0x230 <inicio>
 2a8:	8f e3       	ldi	r24, 0x3F	; 63
 2aa:	9c e9       	ldi	r25, 0x9C	; 156
 2ac:	01 97       	sbiw	r24, 0x01	; 1
 2ae:	f1 f7       	brne	.-4      	; 0x2ac <Lcd_Init8bits+0x4c>
 2b0:	00 c0       	rjmp	.+0      	; 0x2b2 <Lcd_Init8bits+0x52>
 2b2:	00 00       	nop
	_delay_ms(10);
	inicio(0x38);  //Comando que indica el fabricante del LCD, usando la matriz de 5X8
 2b4:	88 e3       	ldi	r24, 0x38	; 56
 2b6:	0e 94 18 01 	call	0x230	; 0x230 <inicio>
	inicio(0x0C);  //Comando que indica el fabricante del LCD, display encendido
 2ba:	8c e0       	ldi	r24, 0x0C	; 12
 2bc:	0e 94 18 01 	call	0x230	; 0x230 <inicio>
	inicio(0x01);  //Comando que indica el fabricante del LCD, Limpiar LCD
 2c0:	81 e0       	ldi	r24, 0x01	; 1
 2c2:	0e 94 18 01 	call	0x230	; 0x230 <inicio>
	inicio(0x06);  //Comando que indica el fabricante del LCD, comenzar a almacenar en DDRAM
 2c6:	86 e0       	ldi	r24, 0x06	; 6
 2c8:	0e 94 18 01 	call	0x230	; 0x230 <inicio>
 2cc:	08 95       	ret

000002ce <Lcd_Set_Cursor>:
}

void Lcd_Set_Cursor(char a, char b)
{
	if(a == 0)
 2ce:	81 11       	cpse	r24, r1
 2d0:	05 c0       	rjmp	.+10     	; 0x2dc <Lcd_Set_Cursor+0xe>
	inicio(0x80 + b);  //Posicionarse en la linea 1 y se suma la columna
 2d2:	80 e8       	ldi	r24, 0x80	; 128
 2d4:	86 0f       	add	r24, r22
 2d6:	0e 94 18 01 	call	0x230	; 0x230 <inicio>
 2da:	08 95       	ret
	
	else if(a == 1)
 2dc:	81 30       	cpi	r24, 0x01	; 1
 2de:	21 f4       	brne	.+8      	; 0x2e8 <Lcd_Set_Cursor+0x1a>
	inicio(0xC0 + b);  //Posicionarse en la linea 2  y se suma la columna
 2e0:	80 ec       	ldi	r24, 0xC0	; 192
 2e2:	86 0f       	add	r24, r22
 2e4:	0e 94 18 01 	call	0x230	; 0x230 <inicio>
 2e8:	08 95       	ret

000002ea <Lcd_Clear>:
	
}

void Lcd_Clear()    //Limpia la pantalla LCD
{
	inicio(1);  //Comando dado por el fabricante de la LCD
 2ea:	81 e0       	ldi	r24, 0x01	; 1
 2ec:	0e 94 18 01 	call	0x230	; 0x230 <inicio>
 2f0:	08 95       	ret

000002f2 <Lcd_Write_Char>:
}

void Lcd_Write_Char(char data)
{
	PORTB |= (1<<PORTB2);        // RS = 1, se le indica que esta en modo caracter
 2f2:	95 b1       	in	r25, 0x05	; 5
 2f4:	94 60       	ori	r25, 0x04	; 4
 2f6:	95 b9       	out	0x05, r25	; 5
	dato_a_mostrar(data);             //Escribir el caracter
 2f8:	0e 94 0c 01 	call	0x218	; 0x218 <dato_a_mostrar>
	PORTB |= (1<<PORTB3);       // E = 1, enviar el dato
 2fc:	85 b1       	in	r24, 0x05	; 5
 2fe:	88 60       	ori	r24, 0x08	; 8
 300:	85 b9       	out	0x05, r24	; 5
 302:	8f e9       	ldi	r24, 0x9F	; 159
 304:	9f e0       	ldi	r25, 0x0F	; 15
 306:	01 97       	sbiw	r24, 0x01	; 1
 308:	f1 f7       	brne	.-4      	; 0x306 <Lcd_Write_Char+0x14>
 30a:	00 c0       	rjmp	.+0      	; 0x30c <Lcd_Write_Char+0x1a>
 30c:	00 00       	nop
	_delay_ms(1);
	PORTB &= ~(1<<PORTB3);    // E = 0
 30e:	85 b1       	in	r24, 0x05	; 5
 310:	87 7f       	andi	r24, 0xF7	; 247
 312:	85 b9       	out	0x05, r24	; 5
 314:	8f e9       	ldi	r24, 0x9F	; 159
 316:	9f e0       	ldi	r25, 0x0F	; 15
 318:	01 97       	sbiw	r24, 0x01	; 1
 31a:	f1 f7       	brne	.-4      	; 0x318 <Lcd_Write_Char+0x26>
 31c:	00 c0       	rjmp	.+0      	; 0x31e <Lcd_Write_Char+0x2c>
 31e:	00 00       	nop
 320:	08 95       	ret

00000322 <Lcd_Write_String>:
	_delay_ms(1);
}


void Lcd_Write_String(char *a) //Usando punteros, ya que, estos almacenan por ejemplo *dato = hola\0, al final siempre llevan un caracter nulo
{
 322:	0f 93       	push	r16
 324:	1f 93       	push	r17
 326:	cf 93       	push	r28
 328:	df 93       	push	r29
 32a:	8c 01       	movw	r16, r24
	int i;
	for(i=0; a[i]!='\0'; i++)   //Se recorre todo el puntero, hasta que el valor sea nulo
 32c:	c0 e0       	ldi	r28, 0x00	; 0
 32e:	d0 e0       	ldi	r29, 0x00	; 0
 330:	03 c0       	rjmp	.+6      	; 0x338 <Lcd_Write_String+0x16>
	Lcd_Write_Char(a[i]);
 332:	0e 94 79 01 	call	0x2f2	; 0x2f2 <Lcd_Write_Char>


void Lcd_Write_String(char *a) //Usando punteros, ya que, estos almacenan por ejemplo *dato = hola\0, al final siempre llevan un caracter nulo
{
	int i;
	for(i=0; a[i]!='\0'; i++)   //Se recorre todo el puntero, hasta que el valor sea nulo
 336:	21 96       	adiw	r28, 0x01	; 1
 338:	f8 01       	movw	r30, r16
 33a:	ec 0f       	add	r30, r28
 33c:	fd 1f       	adc	r31, r29
 33e:	80 81       	ld	r24, Z
 340:	81 11       	cpse	r24, r1
 342:	f7 cf       	rjmp	.-18     	; 0x332 <Lcd_Write_String+0x10>
	Lcd_Write_Char(a[i]);
}
 344:	df 91       	pop	r29
 346:	cf 91       	pop	r28
 348:	1f 91       	pop	r17
 34a:	0f 91       	pop	r16
 34c:	08 95       	ret

0000034e <setup>:
	// Bits D2?D7 ? PORTD2?PORTD7
	PORTD = (PORTD & 0x03) | (bus_data & 0xFC);
}

void setup(){
	cli();
 34e:	f8 94       	cli
	
	//Puerto D
	DDRD |= (1<<PORTD2)|(1<<PORTD3)|(1<<PORTD4)|(1<<PORTD5)|(1<<PORTD6)|(1<<PORTD7);		//Salidas
 350:	8a b1       	in	r24, 0x0a	; 10
 352:	8c 6f       	ori	r24, 0xFC	; 252
 354:	8a b9       	out	0x0a, r24	; 10
	PORTD &= ~((1<<PORTD2)|(1<<PORTD3)|(1<<PORTD4)|(1<<PORTD5)|(1<<PORTD6)|(1<<PORTD7));
 356:	8b b1       	in	r24, 0x0b	; 11
 358:	83 70       	andi	r24, 0x03	; 3
 35a:	8b b9       	out	0x0b, r24	; 11
	
	//PUERTO B
	DDRB |= (1<<PORTB0)|(1<<PORTB1)|(1<<PORTB2)|(1<<PORTB3);
 35c:	84 b1       	in	r24, 0x04	; 4
 35e:	8f 60       	ori	r24, 0x0F	; 15
 360:	84 b9       	out	0x04, r24	; 4
	PORTB &= ~((1<<PORTB0)|(1<<PORTB1)|(1<<PORTB2)|(1<<PORTB3));
 362:	85 b1       	in	r24, 0x05	; 5
 364:	80 7f       	andi	r24, 0xF0	; 240
 366:	85 b9       	out	0x05, r24	; 5

	
	Lcd_Init8bits();
 368:	0e 94 30 01 	call	0x260	; 0x260 <Lcd_Init8bits>
	I2C_init_Master(1, 100000);
 36c:	40 ea       	ldi	r20, 0xA0	; 160
 36e:	56 e8       	ldi	r21, 0x86	; 134
 370:	61 e0       	ldi	r22, 0x01	; 1
 372:	70 e0       	ldi	r23, 0x00	; 0
 374:	81 e0       	ldi	r24, 0x01	; 1
 376:	0e 94 53 00 	call	0xa6	; 0xa6 <I2C_init_Master>
	initUART_9600();
 37a:	0e 94 af 03 	call	0x75e	; 0x75e <initUART_9600>
	
	Lcd_Clear();
 37e:	0e 94 75 01 	call	0x2ea	; 0x2ea <Lcd_Clear>
	
	sei();
 382:	78 94       	sei
 384:	08 95       	ret

00000386 <actualizar_datos_slave>:
//addressW es la dirrecion del esclavo para escribirle
//addressR es la direccion del esclavo para leerlo
//dato es el dato o lectura del sensor
//comando es el caracter que enviara el Master al slave. (Instruccion que debe hacer)

void actualizar_datos_slave(uint8_t addressW, uint8_t addressR , char comando, uint8_t sensor){
 386:	0f 93       	push	r16
 388:	1f 93       	push	r17
 38a:	cf 93       	push	r28
 38c:	df 93       	push	r29
 38e:	c8 2f       	mov	r28, r24
 390:	06 2f       	mov	r16, r22
 392:	d4 2f       	mov	r29, r20
 394:	12 2f       	mov	r17, r18
	writeString("Inicio de comunicacion\n");
 396:	83 e4       	ldi	r24, 0x43	; 67
 398:	91 e0       	ldi	r25, 0x01	; 1
 39a:	0e 94 9c 03 	call	0x738	; 0x738 <writeString>
	
	if(!I2C_Start()) return;
 39e:	0e 94 a7 00 	call	0x14e	; 0x14e <I2C_Start>
 3a2:	88 23       	and	r24, r24
 3a4:	09 f4       	brne	.+2      	; 0x3a8 <actualizar_datos_slave+0x22>
 3a6:	51 c0       	rjmp	.+162    	; 0x44a <__EEPROM_REGION_LENGTH__+0x4a>
	
	if (!I2C_write(addressW)){
 3a8:	8c 2f       	mov	r24, r28
 3aa:	0e 94 d6 00 	call	0x1ac	; 0x1ac <I2C_write>
 3ae:	81 11       	cpse	r24, r1
 3b0:	07 c0       	rjmp	.+14     	; 0x3c0 <actualizar_datos_slave+0x3a>
		I2C_stop();
 3b2:	0e 94 c9 00 	call	0x192	; 0x192 <I2C_stop>
		writeString("Fallo al iniciar\n");
 3b6:	8b e5       	ldi	r24, 0x5B	; 91
 3b8:	91 e0       	ldi	r25, 0x01	; 1
 3ba:	0e 94 9c 03 	call	0x738	; 0x738 <writeString>
		return;
 3be:	45 c0       	rjmp	.+138    	; 0x44a <__EEPROM_REGION_LENGTH__+0x4a>
	}
	
	if(!I2C_write(comando)){
 3c0:	8d 2f       	mov	r24, r29
 3c2:	0e 94 d6 00 	call	0x1ac	; 0x1ac <I2C_write>
 3c6:	81 11       	cpse	r24, r1
 3c8:	07 c0       	rjmp	.+14     	; 0x3d8 <actualizar_datos_slave+0x52>
		I2C_stop();
 3ca:	0e 94 c9 00 	call	0x192	; 0x192 <I2C_stop>
		writeString("Fallo al enviar\n");
 3ce:	8d e6       	ldi	r24, 0x6D	; 109
 3d0:	91 e0       	ldi	r25, 0x01	; 1
 3d2:	0e 94 9c 03 	call	0x738	; 0x738 <writeString>
		return;
 3d6:	39 c0       	rjmp	.+114    	; 0x44a <__EEPROM_REGION_LENGTH__+0x4a>
	}
	
	if (!I2C_repeatedStart()){
 3d8:	0e 94 ba 00 	call	0x174	; 0x174 <I2C_repeatedStart>
 3dc:	81 11       	cpse	r24, r1
 3de:	07 c0       	rjmp	.+14     	; 0x3ee <actualizar_datos_slave+0x68>
		I2C_stop();
 3e0:	0e 94 c9 00 	call	0x192	; 0x192 <I2C_stop>
		writeString("Fallo al reptir\n");
 3e4:	8e e7       	ldi	r24, 0x7E	; 126
 3e6:	91 e0       	ldi	r25, 0x01	; 1
 3e8:	0e 94 9c 03 	call	0x738	; 0x738 <writeString>
		return;
 3ec:	2e c0       	rjmp	.+92     	; 0x44a <__EEPROM_REGION_LENGTH__+0x4a>
	}
	
	if(!I2C_write(addressR)){
 3ee:	80 2f       	mov	r24, r16
 3f0:	0e 94 d6 00 	call	0x1ac	; 0x1ac <I2C_write>
 3f4:	81 11       	cpse	r24, r1
 3f6:	07 c0       	rjmp	.+14     	; 0x406 <__EEPROM_REGION_LENGTH__+0x6>
		I2C_stop();
 3f8:	0e 94 c9 00 	call	0x192	; 0x192 <I2C_stop>
		writeString("fallo al escribir\n");
 3fc:	8f e8       	ldi	r24, 0x8F	; 143
 3fe:	91 e0       	ldi	r25, 0x01	; 1
 400:	0e 94 9c 03 	call	0x738	; 0x738 <writeString>
		return;
 404:	22 c0       	rjmp	.+68     	; 0x44a <__EEPROM_REGION_LENGTH__+0x4a>
	}
	
	writeString("Esperando Dato\n");
 406:	82 ea       	ldi	r24, 0xA2	; 162
 408:	91 e0       	ldi	r25, 0x01	; 1
 40a:	0e 94 9c 03 	call	0x738	; 0x738 <writeString>
	
	
	switch(sensor){
 40e:	11 23       	and	r17, r17
 410:	19 f0       	breq	.+6      	; 0x418 <__EEPROM_REGION_LENGTH__+0x18>
 412:	11 30       	cpi	r17, 0x01	; 1
 414:	59 f0       	breq	.+22     	; 0x42c <__EEPROM_REGION_LENGTH__+0x2c>
 416:	13 c0       	rjmp	.+38     	; 0x43e <__EEPROM_REGION_LENGTH__+0x3e>
		case 0:
		I2C_read(&lectura_S1, 0);
 418:	60 e0       	ldi	r22, 0x00	; 0
 41a:	83 ee       	ldi	r24, 0xE3	; 227
 41c:	91 e0       	ldi	r25, 0x01	; 1
 41e:	0e 94 ea 00 	call	0x1d4	; 0x1d4 <I2C_read>
		writeString("Dato recibidio\n");
 422:	82 eb       	ldi	r24, 0xB2	; 178
 424:	91 e0       	ldi	r25, 0x01	; 1
 426:	0e 94 9c 03 	call	0x738	; 0x738 <writeString>
		
		break;
 42a:	09 c0       	rjmp	.+18     	; 0x43e <__EEPROM_REGION_LENGTH__+0x3e>
		case 1:
		I2C_read(&lectura_S2, 0);
 42c:	60 e0       	ldi	r22, 0x00	; 0
 42e:	82 ee       	ldi	r24, 0xE2	; 226
 430:	91 e0       	ldi	r25, 0x01	; 1
 432:	0e 94 ea 00 	call	0x1d4	; 0x1d4 <I2C_read>
		writeString("Dato recibidio\n");
 436:	82 eb       	ldi	r24, 0xB2	; 178
 438:	91 e0       	ldi	r25, 0x01	; 1
 43a:	0e 94 9c 03 	call	0x738	; 0x738 <writeString>
		break;
		default:
		break;
	}
	I2C_stop();
 43e:	0e 94 c9 00 	call	0x192	; 0x192 <I2C_stop>
	
	writeString("comunicación terminada\n");
 442:	82 ec       	ldi	r24, 0xC2	; 194
 444:	91 e0       	ldi	r25, 0x01	; 1
 446:	0e 94 9c 03 	call	0x738	; 0x738 <writeString>
}
 44a:	df 91       	pop	r29
 44c:	cf 91       	pop	r28
 44e:	1f 91       	pop	r17
 450:	0f 91       	pop	r16
 452:	08 95       	ret

00000454 <actualizarS1>:
	
	
}

void actualizarS1(char *lista, uint8_t cod_dist)
{
 454:	ef 92       	push	r14
 456:	ff 92       	push	r15
 458:	0f 93       	push	r16
 45a:	1f 93       	push	r17
 45c:	cf 93       	push	r28
 45e:	df 93       	push	r29
 460:	ec 01       	movw	r28, r24
	uint16_t distancia = ((uint32_t)cod_dist * 448UL) / 255UL + 2;
 462:	26 2f       	mov	r18, r22
 464:	30 e0       	ldi	r19, 0x00	; 0
 466:	a0 ec       	ldi	r26, 0xC0	; 192
 468:	b1 e0       	ldi	r27, 0x01	; 1
 46a:	0e 94 f5 05 	call	0xbea	; 0xbea <__umulhisi3>
 46e:	2f ef       	ldi	r18, 0xFF	; 255
 470:	30 e0       	ldi	r19, 0x00	; 0
 472:	40 e0       	ldi	r20, 0x00	; 0
 474:	50 e0       	ldi	r21, 0x00	; 0
 476:	0e 94 d3 05 	call	0xba6	; 0xba6 <__udivmodsi4>
 47a:	a9 01       	movw	r20, r18
 47c:	4e 5f       	subi	r20, 0xFE	; 254
 47e:	5f 4f       	sbci	r21, 0xFF	; 255

	if (distancia > 450)
 480:	43 3c       	cpi	r20, 0xC3	; 195
 482:	81 e0       	ldi	r24, 0x01	; 1
 484:	58 07       	cpc	r21, r24
 486:	10 f0       	brcs	.+4      	; 0x48c <actualizarS1+0x38>
	distancia = 450;
 488:	42 ec       	ldi	r20, 0xC2	; 194
 48a:	51 e0       	ldi	r21, 0x01	; 1

	uint8_t centenas = distancia / 100;
 48c:	9a 01       	movw	r18, r20
 48e:	36 95       	lsr	r19
 490:	27 95       	ror	r18
 492:	36 95       	lsr	r19
 494:	27 95       	ror	r18
 496:	ab e7       	ldi	r26, 0x7B	; 123
 498:	b4 e1       	ldi	r27, 0x14	; 20
 49a:	0e 94 f5 05 	call	0xbea	; 0xbea <__umulhisi3>
 49e:	7c 01       	movw	r14, r24
 4a0:	f6 94       	lsr	r15
 4a2:	e7 94       	ror	r14
	uint8_t decenas  = (distancia / 10) % 10;
 4a4:	9a 01       	movw	r18, r20
 4a6:	ad ec       	ldi	r26, 0xCD	; 205
 4a8:	bc ec       	ldi	r27, 0xCC	; 204
 4aa:	0e 94 f5 05 	call	0xbea	; 0xbea <__umulhisi3>
 4ae:	8c 01       	movw	r16, r24
 4b0:	16 95       	lsr	r17
 4b2:	07 95       	ror	r16
 4b4:	16 95       	lsr	r17
 4b6:	07 95       	ror	r16
 4b8:	16 95       	lsr	r17
 4ba:	07 95       	ror	r16
 4bc:	98 01       	movw	r18, r16
 4be:	0e 94 f5 05 	call	0xbea	; 0xbea <__umulhisi3>
 4c2:	fc 01       	movw	r30, r24
 4c4:	f6 95       	lsr	r31
 4c6:	e7 95       	ror	r30
 4c8:	f6 95       	lsr	r31
 4ca:	e7 95       	ror	r30
 4cc:	f6 95       	lsr	r31
 4ce:	e7 95       	ror	r30
 4d0:	cf 01       	movw	r24, r30
 4d2:	88 0f       	add	r24, r24
 4d4:	99 1f       	adc	r25, r25
 4d6:	ee 0f       	add	r30, r30
 4d8:	ff 1f       	adc	r31, r31
 4da:	ee 0f       	add	r30, r30
 4dc:	ff 1f       	adc	r31, r31
 4de:	ee 0f       	add	r30, r30
 4e0:	ff 1f       	adc	r31, r31
 4e2:	e8 0f       	add	r30, r24
 4e4:	f9 1f       	adc	r31, r25
 4e6:	c8 01       	movw	r24, r16
 4e8:	8e 1b       	sub	r24, r30
 4ea:	9f 0b       	sbc	r25, r31
 4ec:	fc 01       	movw	r30, r24
	uint8_t unidades = distancia % 10;
 4ee:	98 01       	movw	r18, r16
 4f0:	22 0f       	add	r18, r18
 4f2:	33 1f       	adc	r19, r19
 4f4:	c8 01       	movw	r24, r16
 4f6:	88 0f       	add	r24, r24
 4f8:	99 1f       	adc	r25, r25
 4fa:	88 0f       	add	r24, r24
 4fc:	99 1f       	adc	r25, r25
 4fe:	88 0f       	add	r24, r24
 500:	99 1f       	adc	r25, r25
 502:	82 0f       	add	r24, r18
 504:	93 1f       	adc	r25, r19
 506:	48 1b       	sub	r20, r24
 508:	59 0b       	sbc	r21, r25

	lista[0] = centenas + '0';
 50a:	80 e3       	ldi	r24, 0x30	; 48
 50c:	8e 0d       	add	r24, r14
 50e:	88 83       	st	Y, r24
	lista[1] = decenas  + '0';
 510:	e0 5d       	subi	r30, 0xD0	; 208
 512:	e9 83       	std	Y+1, r30	; 0x01
	lista[2] = unidades + '0';
 514:	40 5d       	subi	r20, 0xD0	; 208
 516:	4a 83       	std	Y+2, r20	; 0x02
	lista[3] = 'c';
 518:	83 e6       	ldi	r24, 0x63	; 99
 51a:	8b 83       	std	Y+3, r24	; 0x03
	lista[4] = 'm';
 51c:	8d e6       	ldi	r24, 0x6D	; 109
 51e:	8c 83       	std	Y+4, r24	; 0x04
	lista[5] = '\0';
 520:	1d 82       	std	Y+5, r1	; 0x05
}
 522:	df 91       	pop	r29
 524:	cf 91       	pop	r28
 526:	1f 91       	pop	r17
 528:	0f 91       	pop	r16
 52a:	ff 90       	pop	r15
 52c:	ef 90       	pop	r14
 52e:	08 95       	ret

00000530 <actualizarS2>:


void actualizarS2(char *lista, uint8_t dato){
 530:	8f 92       	push	r8
 532:	9f 92       	push	r9
 534:	af 92       	push	r10
 536:	bf 92       	push	r11
 538:	cf 92       	push	r12
 53a:	df 92       	push	r13
 53c:	ef 92       	push	r14
 53e:	ff 92       	push	r15
 540:	0f 93       	push	r16
 542:	1f 93       	push	r17
 544:	cf 93       	push	r28
 546:	df 93       	push	r29
 548:	ec 01       	movw	r28, r24
	float voltaje = (dato * 5.0) / 255.0;
 54a:	70 e0       	ldi	r23, 0x00	; 0
 54c:	80 e0       	ldi	r24, 0x00	; 0
 54e:	90 e0       	ldi	r25, 0x00	; 0
 550:	0e 94 da 04 	call	0x9b4	; 0x9b4 <__floatsisf>
 554:	20 e0       	ldi	r18, 0x00	; 0
 556:	30 e0       	ldi	r19, 0x00	; 0
 558:	40 ea       	ldi	r20, 0xA0	; 160
 55a:	50 e4       	ldi	r21, 0x40	; 64
 55c:	0e 94 66 05 	call	0xacc	; 0xacc <__mulsf3>
 560:	20 e0       	ldi	r18, 0x00	; 0
 562:	30 e0       	ldi	r19, 0x00	; 0
 564:	4f e7       	ldi	r20, 0x7F	; 127
 566:	53 e4       	ldi	r21, 0x43	; 67
 568:	0e 94 37 04 	call	0x86e	; 0x86e <__divsf3>
 56c:	4b 01       	movw	r8, r22
 56e:	5c 01       	movw	r10, r24
	uint16_t int_part = (uint16_t)voltaje;
 570:	0e 94 a9 04 	call	0x952	; 0x952 <__fixunssfsi>
 574:	6b 01       	movw	r12, r22
 576:	7c 01       	movw	r14, r24
 578:	8b 01       	movw	r16, r22
	uint16_t dec_part = (uint16_t)((voltaje - int_part) * 100);  // Dos decimales
 57a:	80 e0       	ldi	r24, 0x00	; 0
 57c:	90 e0       	ldi	r25, 0x00	; 0
 57e:	0e 94 d8 04 	call	0x9b0	; 0x9b0 <__floatunsisf>
 582:	9b 01       	movw	r18, r22
 584:	ac 01       	movw	r20, r24
 586:	c5 01       	movw	r24, r10
 588:	b4 01       	movw	r22, r8
 58a:	0e 94 ca 03 	call	0x794	; 0x794 <__subsf3>
 58e:	20 e0       	ldi	r18, 0x00	; 0
 590:	30 e0       	ldi	r19, 0x00	; 0
 592:	48 ec       	ldi	r20, 0xC8	; 200
 594:	52 e4       	ldi	r21, 0x42	; 66
 596:	0e 94 66 05 	call	0xacc	; 0xacc <__mulsf3>
 59a:	0e 94 a9 04 	call	0x952	; 0x952 <__fixunssfsi>
 59e:	4b 01       	movw	r8, r22
 5a0:	5c 01       	movw	r10, r24

	if (int_part < 10) {
 5a2:	0a 30       	cpi	r16, 0x0A	; 10
 5a4:	11 05       	cpc	r17, r1
 5a6:	40 f5       	brcc	.+80     	; 0x5f8 <actualizarS2+0xc8>
		lista[0] = '0' + int_part;
 5a8:	80 e3       	ldi	r24, 0x30	; 48
 5aa:	8c 0d       	add	r24, r12
 5ac:	88 83       	st	Y, r24
		lista[1] = '.';
 5ae:	8e e2       	ldi	r24, 0x2E	; 46
 5b0:	89 83       	std	Y+1, r24	; 0x01
		lista[2] = '0' + (dec_part / 10);
 5b2:	94 01       	movw	r18, r8
 5b4:	ad ec       	ldi	r26, 0xCD	; 205
 5b6:	bc ec       	ldi	r27, 0xCC	; 204
 5b8:	0e 94 f5 05 	call	0xbea	; 0xbea <__umulhisi3>
 5bc:	ac 01       	movw	r20, r24
 5be:	56 95       	lsr	r21
 5c0:	47 95       	ror	r20
 5c2:	56 95       	lsr	r21
 5c4:	47 95       	ror	r20
 5c6:	56 95       	lsr	r21
 5c8:	47 95       	ror	r20
 5ca:	80 e3       	ldi	r24, 0x30	; 48
 5cc:	84 0f       	add	r24, r20
 5ce:	8a 83       	std	Y+2, r24	; 0x02
		lista[3] = '0' + (dec_part % 10);
 5d0:	ca 01       	movw	r24, r20
 5d2:	88 0f       	add	r24, r24
 5d4:	99 1f       	adc	r25, r25
 5d6:	44 0f       	add	r20, r20
 5d8:	55 1f       	adc	r21, r21
 5da:	44 0f       	add	r20, r20
 5dc:	55 1f       	adc	r21, r21
 5de:	44 0f       	add	r20, r20
 5e0:	55 1f       	adc	r21, r21
 5e2:	48 0f       	add	r20, r24
 5e4:	59 1f       	adc	r21, r25
 5e6:	c4 01       	movw	r24, r8
 5e8:	84 1b       	sub	r24, r20
 5ea:	95 0b       	sbc	r25, r21
 5ec:	80 5d       	subi	r24, 0xD0	; 208
 5ee:	8b 83       	std	Y+3, r24	; 0x03
		lista[4] = 'V';
 5f0:	86 e5       	ldi	r24, 0x56	; 86
 5f2:	8c 83       	std	Y+4, r24	; 0x04
		lista[5] = '\0';
 5f4:	1d 82       	std	Y+5, r1	; 0x05
 5f6:	41 c0       	rjmp	.+130    	; 0x67a <actualizarS2+0x14a>
	}
	else {
		lista[0] = '0' + (int_part / 10);
 5f8:	96 01       	movw	r18, r12
 5fa:	ad ec       	ldi	r26, 0xCD	; 205
 5fc:	bc ec       	ldi	r27, 0xCC	; 204
 5fe:	0e 94 f5 05 	call	0xbea	; 0xbea <__umulhisi3>
 602:	ac 01       	movw	r20, r24
 604:	56 95       	lsr	r21
 606:	47 95       	ror	r20
 608:	56 95       	lsr	r21
 60a:	47 95       	ror	r20
 60c:	56 95       	lsr	r21
 60e:	47 95       	ror	r20
 610:	80 e3       	ldi	r24, 0x30	; 48
 612:	84 0f       	add	r24, r20
 614:	88 83       	st	Y, r24
		lista[1] = '0' + (int_part % 10);
 616:	ca 01       	movw	r24, r20
 618:	88 0f       	add	r24, r24
 61a:	99 1f       	adc	r25, r25
 61c:	44 0f       	add	r20, r20
 61e:	55 1f       	adc	r21, r21
 620:	44 0f       	add	r20, r20
 622:	55 1f       	adc	r21, r21
 624:	44 0f       	add	r20, r20
 626:	55 1f       	adc	r21, r21
 628:	48 0f       	add	r20, r24
 62a:	59 1f       	adc	r21, r25
 62c:	c6 01       	movw	r24, r12
 62e:	84 1b       	sub	r24, r20
 630:	95 0b       	sbc	r25, r21
 632:	80 5d       	subi	r24, 0xD0	; 208
 634:	89 83       	std	Y+1, r24	; 0x01
		lista[2] = '.';
 636:	8e e2       	ldi	r24, 0x2E	; 46
 638:	8a 83       	std	Y+2, r24	; 0x02
		lista[3] = '0' + (dec_part / 10);
 63a:	94 01       	movw	r18, r8
 63c:	0e 94 f5 05 	call	0xbea	; 0xbea <__umulhisi3>
 640:	ac 01       	movw	r20, r24
 642:	56 95       	lsr	r21
 644:	47 95       	ror	r20
 646:	56 95       	lsr	r21
 648:	47 95       	ror	r20
 64a:	56 95       	lsr	r21
 64c:	47 95       	ror	r20
 64e:	80 e3       	ldi	r24, 0x30	; 48
 650:	84 0f       	add	r24, r20
 652:	8b 83       	std	Y+3, r24	; 0x03
		lista[4] = '0' + (dec_part % 10);
 654:	ca 01       	movw	r24, r20
 656:	88 0f       	add	r24, r24
 658:	99 1f       	adc	r25, r25
 65a:	44 0f       	add	r20, r20
 65c:	55 1f       	adc	r21, r21
 65e:	44 0f       	add	r20, r20
 660:	55 1f       	adc	r21, r21
 662:	44 0f       	add	r20, r20
 664:	55 1f       	adc	r21, r21
 666:	48 0f       	add	r20, r24
 668:	59 1f       	adc	r21, r25
 66a:	c4 01       	movw	r24, r8
 66c:	84 1b       	sub	r24, r20
 66e:	95 0b       	sbc	r25, r21
 670:	80 5d       	subi	r24, 0xD0	; 208
 672:	8c 83       	std	Y+4, r24	; 0x04
		lista[5] = 'V';
 674:	86 e5       	ldi	r24, 0x56	; 86
 676:	8d 83       	std	Y+5, r24	; 0x05
		lista[6] = '\0';
 678:	1e 82       	std	Y+6, r1	; 0x06
	}
}
 67a:	df 91       	pop	r29
 67c:	cf 91       	pop	r28
 67e:	1f 91       	pop	r17
 680:	0f 91       	pop	r16
 682:	ff 90       	pop	r15
 684:	ef 90       	pop	r14
 686:	df 90       	pop	r13
 688:	cf 90       	pop	r12
 68a:	bf 90       	pop	r11
 68c:	af 90       	pop	r10
 68e:	9f 90       	pop	r9
 690:	8f 90       	pop	r8
 692:	08 95       	ret

00000694 <actualizarLCD>:
	
	writeString("comunicación terminada\n");
}

void actualizarLCD() {
	Lcd_Clear();  // Limpiar pantalla
 694:	0e 94 75 01 	call	0x2ea	; 0x2ea <Lcd_Clear>
	Lcd_Set_Cursor(0, 0);
 698:	60 e0       	ldi	r22, 0x00	; 0
 69a:	80 e0       	ldi	r24, 0x00	; 0
 69c:	0e 94 67 01 	call	0x2ce	; 0x2ce <Lcd_Set_Cursor>
	Lcd_Write_String("S1:");  // Escribir etiqueta de Sensor 1		
 6a0:	8a ed       	ldi	r24, 0xDA	; 218
 6a2:	91 e0       	ldi	r25, 0x01	; 1
 6a4:	0e 94 91 01 	call	0x322	; 0x322 <Lcd_Write_String>
	
	Lcd_Set_Cursor(0, 6);
 6a8:	66 e0       	ldi	r22, 0x06	; 6
 6aa:	80 e0       	ldi	r24, 0x00	; 0
 6ac:	0e 94 67 01 	call	0x2ce	; 0x2ce <Lcd_Set_Cursor>
	Lcd_Write_String("S2:");  // Escribir etiqueta de Sensor 2
 6b0:	8e ed       	ldi	r24, 0xDE	; 222
 6b2:	91 e0       	ldi	r25, 0x01	; 1
 6b4:	0e 94 91 01 	call	0x322	; 0x322 <Lcd_Write_String>
	/*Lcd_Set_Cursor(0, 11);
	Lcd_Write_String("S3:");  // Escribir etiqueta de Sensor 3
	*/
	actualizarS1(lista1, lectura_S1);
 6b8:	60 91 e3 01 	lds	r22, 0x01E3	; 0x8001e3 <lectura_S1>
 6bc:	88 e0       	ldi	r24, 0x08	; 8
 6be:	91 e0       	ldi	r25, 0x01	; 1
 6c0:	0e 94 2a 02 	call	0x454	; 0x454 <actualizarS1>
	actualizarS2(lista2,lectura_S2);
 6c4:	60 91 e2 01 	lds	r22, 0x01E2	; 0x8001e2 <__data_end>
 6c8:	80 e0       	ldi	r24, 0x00	; 0
 6ca:	91 e0       	ldi	r25, 0x01	; 1
 6cc:	0e 94 98 02 	call	0x530	; 0x530 <actualizarS2>
	//actualizarS3(lista3,lectura_S3)
	
	Lcd_Set_Cursor(1,0);
 6d0:	60 e0       	ldi	r22, 0x00	; 0
 6d2:	81 e0       	ldi	r24, 0x01	; 1
 6d4:	0e 94 67 01 	call	0x2ce	; 0x2ce <Lcd_Set_Cursor>
	Lcd_Write_String(lista1);
 6d8:	88 e0       	ldi	r24, 0x08	; 8
 6da:	91 e0       	ldi	r25, 0x01	; 1
 6dc:	0e 94 91 01 	call	0x322	; 0x322 <Lcd_Write_String>
	Lcd_Set_Cursor(1,6);
 6e0:	66 e0       	ldi	r22, 0x06	; 6
 6e2:	81 e0       	ldi	r24, 0x01	; 1
 6e4:	0e 94 67 01 	call	0x2ce	; 0x2ce <Lcd_Set_Cursor>
	Lcd_Write_String(lista2);
 6e8:	80 e0       	ldi	r24, 0x00	; 0
 6ea:	91 e0       	ldi	r25, 0x01	; 1
 6ec:	0e 94 91 01 	call	0x322	; 0x322 <Lcd_Write_String>
 6f0:	08 95       	ret

000006f2 <main>:
/********* Funcion principal *********/
int main(void)
{
    /* Replace with your application code */
	
	setup();
 6f2:	0e 94 a7 01 	call	0x34e	; 0x34e <setup>
	
	Lcd_Clear();
 6f6:	0e 94 75 01 	call	0x2ea	; 0x2ea <Lcd_Clear>
	
    while (1) 
    {
		actualizar_datos_slave(slave1W, slave1R,'R', 0);
 6fa:	20 e0       	ldi	r18, 0x00	; 0
 6fc:	42 e5       	ldi	r20, 0x52	; 82
 6fe:	61 e6       	ldi	r22, 0x61	; 97
 700:	80 e6       	ldi	r24, 0x60	; 96
 702:	0e 94 c3 01 	call	0x386	; 0x386 <actualizar_datos_slave>
		
		actualizar_datos_slave(slave2W, slave2R , 'W', 1);
 706:	21 e0       	ldi	r18, 0x01	; 1
 708:	47 e5       	ldi	r20, 0x57	; 87
 70a:	61 e8       	ldi	r22, 0x81	; 129
 70c:	80 e8       	ldi	r24, 0x80	; 128
 70e:	0e 94 c3 01 	call	0x386	; 0x386 <actualizar_datos_slave>
		
		actualizarLCD();
 712:	0e 94 4a 03 	call	0x694	; 0x694 <actualizarLCD>
 716:	2f ef       	ldi	r18, 0xFF	; 255
 718:	81 ee       	ldi	r24, 0xE1	; 225
 71a:	94 e0       	ldi	r25, 0x04	; 4
 71c:	21 50       	subi	r18, 0x01	; 1
 71e:	80 40       	sbci	r24, 0x00	; 0
 720:	90 40       	sbci	r25, 0x00	; 0
 722:	e1 f7       	brne	.-8      	; 0x71c <main+0x2a>
 724:	00 c0       	rjmp	.+0      	; 0x726 <main+0x34>
 726:	00 00       	nop
 728:	e8 cf       	rjmp	.-48     	; 0x6fa <main+0x8>

0000072a <write>:

	// Enviar en orden correcto
	while (i > 0) {
		write(buffer[--i]);
	}
}
 72a:	90 91 c0 00 	lds	r25, 0x00C0	; 0x8000c0 <__TEXT_REGION_LENGTH__+0x7f80c0>
 72e:	95 ff       	sbrs	r25, 5
 730:	fc cf       	rjmp	.-8      	; 0x72a <write>
 732:	80 93 c6 00 	sts	0x00C6, r24	; 0x8000c6 <__TEXT_REGION_LENGTH__+0x7f80c6>
 736:	08 95       	ret

00000738 <writeString>:
 738:	0f 93       	push	r16
 73a:	1f 93       	push	r17
 73c:	cf 93       	push	r28
 73e:	8c 01       	movw	r16, r24
 740:	c0 e0       	ldi	r28, 0x00	; 0
 742:	03 c0       	rjmp	.+6      	; 0x74a <writeString+0x12>
 744:	0e 94 95 03 	call	0x72a	; 0x72a <write>
 748:	cf 5f       	subi	r28, 0xFF	; 255
 74a:	f8 01       	movw	r30, r16
 74c:	ec 0f       	add	r30, r28
 74e:	f1 1d       	adc	r31, r1
 750:	80 81       	ld	r24, Z
 752:	81 11       	cpse	r24, r1
 754:	f7 cf       	rjmp	.-18     	; 0x744 <writeString+0xc>
 756:	cf 91       	pop	r28
 758:	1f 91       	pop	r17
 75a:	0f 91       	pop	r16
 75c:	08 95       	ret

0000075e <initUART_9600>:


//Inicializa el USART a 9600 baudios, 8 bits, sin paridad, 1 bit de parada.
void initUART_9600(){
	//Configurar los pines PD1 Tx y PD0 Rx
	DDRD |= (1<<PORTD1);
 75e:	8a b1       	in	r24, 0x0a	; 10
 760:	82 60       	ori	r24, 0x02	; 2
 762:	8a b9       	out	0x0a, r24	; 10
	DDRD &= ~(1<<PORTD0);
 764:	8a b1       	in	r24, 0x0a	; 10
 766:	8e 7f       	andi	r24, 0xFE	; 254
 768:	8a b9       	out	0x0a, r24	; 10
	UCSR0A = 0;		//No se utiliza doble speed.
 76a:	10 92 c0 00 	sts	0x00C0, r1	; 0x8000c0 <__TEXT_REGION_LENGTH__+0x7f80c0>
	UCSR0B = 0;
 76e:	e1 ec       	ldi	r30, 0xC1	; 193
 770:	f0 e0       	ldi	r31, 0x00	; 0
 772:	10 82       	st	Z, r1
	UCSR0B |= (1<<RXCIE0)|(1<<RXEN0)|(1<<TXEN0);  //Habilitamos interrupciones al recibir, habilitar recepcion y transmision
 774:	80 81       	ld	r24, Z
 776:	88 69       	ori	r24, 0x98	; 152
 778:	80 83       	st	Z, r24
	UCSR0C = 0;
 77a:	e2 ec       	ldi	r30, 0xC2	; 194
 77c:	f0 e0       	ldi	r31, 0x00	; 0
 77e:	10 82       	st	Z, r1
	UCSR0C |= (1<<UCSZ00)|(1<<UCSZ01);	//Asincrono, deshabilitado el bit de paridad, un stop bit, 8 bits de datos.
 780:	80 81       	ld	r24, Z
 782:	86 60       	ori	r24, 0x06	; 6
 784:	80 83       	st	Z, r24
	UBRR0=103;	//UBBRR0=103; -> 9600 con frecuencia de 16MHz
 786:	87 e6       	ldi	r24, 0x67	; 103
 788:	90 e0       	ldi	r25, 0x00	; 0
 78a:	90 93 c5 00 	sts	0x00C5, r25	; 0x8000c5 <__TEXT_REGION_LENGTH__+0x7f80c5>
 78e:	80 93 c4 00 	sts	0x00C4, r24	; 0x8000c4 <__TEXT_REGION_LENGTH__+0x7f80c4>
 792:	08 95       	ret

00000794 <__subsf3>:
 794:	50 58       	subi	r21, 0x80	; 128

00000796 <__addsf3>:
 796:	bb 27       	eor	r27, r27
 798:	aa 27       	eor	r26, r26
 79a:	0e 94 e2 03 	call	0x7c4	; 0x7c4 <__addsf3x>
 79e:	0c 94 2c 05 	jmp	0xa58	; 0xa58 <__fp_round>
 7a2:	0e 94 1e 05 	call	0xa3c	; 0xa3c <__fp_pscA>
 7a6:	38 f0       	brcs	.+14     	; 0x7b6 <__addsf3+0x20>
 7a8:	0e 94 25 05 	call	0xa4a	; 0xa4a <__fp_pscB>
 7ac:	20 f0       	brcs	.+8      	; 0x7b6 <__addsf3+0x20>
 7ae:	39 f4       	brne	.+14     	; 0x7be <__addsf3+0x28>
 7b0:	9f 3f       	cpi	r25, 0xFF	; 255
 7b2:	19 f4       	brne	.+6      	; 0x7ba <__addsf3+0x24>
 7b4:	26 f4       	brtc	.+8      	; 0x7be <__addsf3+0x28>
 7b6:	0c 94 1b 05 	jmp	0xa36	; 0xa36 <__fp_nan>
 7ba:	0e f4       	brtc	.+2      	; 0x7be <__addsf3+0x28>
 7bc:	e0 95       	com	r30
 7be:	e7 fb       	bst	r30, 7
 7c0:	0c 94 15 05 	jmp	0xa2a	; 0xa2a <__fp_inf>

000007c4 <__addsf3x>:
 7c4:	e9 2f       	mov	r30, r25
 7c6:	0e 94 3d 05 	call	0xa7a	; 0xa7a <__fp_split3>
 7ca:	58 f3       	brcs	.-42     	; 0x7a2 <__addsf3+0xc>
 7cc:	ba 17       	cp	r27, r26
 7ce:	62 07       	cpc	r22, r18
 7d0:	73 07       	cpc	r23, r19
 7d2:	84 07       	cpc	r24, r20
 7d4:	95 07       	cpc	r25, r21
 7d6:	20 f0       	brcs	.+8      	; 0x7e0 <__addsf3x+0x1c>
 7d8:	79 f4       	brne	.+30     	; 0x7f8 <__addsf3x+0x34>
 7da:	a6 f5       	brtc	.+104    	; 0x844 <__DATA_REGION_LENGTH__+0x44>
 7dc:	0c 94 5f 05 	jmp	0xabe	; 0xabe <__fp_zero>
 7e0:	0e f4       	brtc	.+2      	; 0x7e4 <__addsf3x+0x20>
 7e2:	e0 95       	com	r30
 7e4:	0b 2e       	mov	r0, r27
 7e6:	ba 2f       	mov	r27, r26
 7e8:	a0 2d       	mov	r26, r0
 7ea:	0b 01       	movw	r0, r22
 7ec:	b9 01       	movw	r22, r18
 7ee:	90 01       	movw	r18, r0
 7f0:	0c 01       	movw	r0, r24
 7f2:	ca 01       	movw	r24, r20
 7f4:	a0 01       	movw	r20, r0
 7f6:	11 24       	eor	r1, r1
 7f8:	ff 27       	eor	r31, r31
 7fa:	59 1b       	sub	r21, r25
 7fc:	99 f0       	breq	.+38     	; 0x824 <__DATA_REGION_LENGTH__+0x24>
 7fe:	59 3f       	cpi	r21, 0xF9	; 249
 800:	50 f4       	brcc	.+20     	; 0x816 <__DATA_REGION_LENGTH__+0x16>
 802:	50 3e       	cpi	r21, 0xE0	; 224
 804:	68 f1       	brcs	.+90     	; 0x860 <__DATA_REGION_LENGTH__+0x60>
 806:	1a 16       	cp	r1, r26
 808:	f0 40       	sbci	r31, 0x00	; 0
 80a:	a2 2f       	mov	r26, r18
 80c:	23 2f       	mov	r18, r19
 80e:	34 2f       	mov	r19, r20
 810:	44 27       	eor	r20, r20
 812:	58 5f       	subi	r21, 0xF8	; 248
 814:	f3 cf       	rjmp	.-26     	; 0x7fc <__addsf3x+0x38>
 816:	46 95       	lsr	r20
 818:	37 95       	ror	r19
 81a:	27 95       	ror	r18
 81c:	a7 95       	ror	r26
 81e:	f0 40       	sbci	r31, 0x00	; 0
 820:	53 95       	inc	r21
 822:	c9 f7       	brne	.-14     	; 0x816 <__DATA_REGION_LENGTH__+0x16>
 824:	7e f4       	brtc	.+30     	; 0x844 <__DATA_REGION_LENGTH__+0x44>
 826:	1f 16       	cp	r1, r31
 828:	ba 0b       	sbc	r27, r26
 82a:	62 0b       	sbc	r22, r18
 82c:	73 0b       	sbc	r23, r19
 82e:	84 0b       	sbc	r24, r20
 830:	ba f0       	brmi	.+46     	; 0x860 <__DATA_REGION_LENGTH__+0x60>
 832:	91 50       	subi	r25, 0x01	; 1
 834:	a1 f0       	breq	.+40     	; 0x85e <__DATA_REGION_LENGTH__+0x5e>
 836:	ff 0f       	add	r31, r31
 838:	bb 1f       	adc	r27, r27
 83a:	66 1f       	adc	r22, r22
 83c:	77 1f       	adc	r23, r23
 83e:	88 1f       	adc	r24, r24
 840:	c2 f7       	brpl	.-16     	; 0x832 <__DATA_REGION_LENGTH__+0x32>
 842:	0e c0       	rjmp	.+28     	; 0x860 <__DATA_REGION_LENGTH__+0x60>
 844:	ba 0f       	add	r27, r26
 846:	62 1f       	adc	r22, r18
 848:	73 1f       	adc	r23, r19
 84a:	84 1f       	adc	r24, r20
 84c:	48 f4       	brcc	.+18     	; 0x860 <__DATA_REGION_LENGTH__+0x60>
 84e:	87 95       	ror	r24
 850:	77 95       	ror	r23
 852:	67 95       	ror	r22
 854:	b7 95       	ror	r27
 856:	f7 95       	ror	r31
 858:	9e 3f       	cpi	r25, 0xFE	; 254
 85a:	08 f0       	brcs	.+2      	; 0x85e <__DATA_REGION_LENGTH__+0x5e>
 85c:	b0 cf       	rjmp	.-160    	; 0x7be <__addsf3+0x28>
 85e:	93 95       	inc	r25
 860:	88 0f       	add	r24, r24
 862:	08 f0       	brcs	.+2      	; 0x866 <__DATA_REGION_LENGTH__+0x66>
 864:	99 27       	eor	r25, r25
 866:	ee 0f       	add	r30, r30
 868:	97 95       	ror	r25
 86a:	87 95       	ror	r24
 86c:	08 95       	ret

0000086e <__divsf3>:
 86e:	0e 94 4b 04 	call	0x896	; 0x896 <__divsf3x>
 872:	0c 94 2c 05 	jmp	0xa58	; 0xa58 <__fp_round>
 876:	0e 94 25 05 	call	0xa4a	; 0xa4a <__fp_pscB>
 87a:	58 f0       	brcs	.+22     	; 0x892 <__divsf3+0x24>
 87c:	0e 94 1e 05 	call	0xa3c	; 0xa3c <__fp_pscA>
 880:	40 f0       	brcs	.+16     	; 0x892 <__divsf3+0x24>
 882:	29 f4       	brne	.+10     	; 0x88e <__divsf3+0x20>
 884:	5f 3f       	cpi	r21, 0xFF	; 255
 886:	29 f0       	breq	.+10     	; 0x892 <__divsf3+0x24>
 888:	0c 94 15 05 	jmp	0xa2a	; 0xa2a <__fp_inf>
 88c:	51 11       	cpse	r21, r1
 88e:	0c 94 60 05 	jmp	0xac0	; 0xac0 <__fp_szero>
 892:	0c 94 1b 05 	jmp	0xa36	; 0xa36 <__fp_nan>

00000896 <__divsf3x>:
 896:	0e 94 3d 05 	call	0xa7a	; 0xa7a <__fp_split3>
 89a:	68 f3       	brcs	.-38     	; 0x876 <__divsf3+0x8>

0000089c <__divsf3_pse>:
 89c:	99 23       	and	r25, r25
 89e:	b1 f3       	breq	.-20     	; 0x88c <__divsf3+0x1e>
 8a0:	55 23       	and	r21, r21
 8a2:	91 f3       	breq	.-28     	; 0x888 <__divsf3+0x1a>
 8a4:	95 1b       	sub	r25, r21
 8a6:	55 0b       	sbc	r21, r21
 8a8:	bb 27       	eor	r27, r27
 8aa:	aa 27       	eor	r26, r26
 8ac:	62 17       	cp	r22, r18
 8ae:	73 07       	cpc	r23, r19
 8b0:	84 07       	cpc	r24, r20
 8b2:	38 f0       	brcs	.+14     	; 0x8c2 <__divsf3_pse+0x26>
 8b4:	9f 5f       	subi	r25, 0xFF	; 255
 8b6:	5f 4f       	sbci	r21, 0xFF	; 255
 8b8:	22 0f       	add	r18, r18
 8ba:	33 1f       	adc	r19, r19
 8bc:	44 1f       	adc	r20, r20
 8be:	aa 1f       	adc	r26, r26
 8c0:	a9 f3       	breq	.-22     	; 0x8ac <__divsf3_pse+0x10>
 8c2:	35 d0       	rcall	.+106    	; 0x92e <__stack+0x2f>
 8c4:	0e 2e       	mov	r0, r30
 8c6:	3a f0       	brmi	.+14     	; 0x8d6 <__divsf3_pse+0x3a>
 8c8:	e0 e8       	ldi	r30, 0x80	; 128
 8ca:	32 d0       	rcall	.+100    	; 0x930 <__stack+0x31>
 8cc:	91 50       	subi	r25, 0x01	; 1
 8ce:	50 40       	sbci	r21, 0x00	; 0
 8d0:	e6 95       	lsr	r30
 8d2:	00 1c       	adc	r0, r0
 8d4:	ca f7       	brpl	.-14     	; 0x8c8 <__divsf3_pse+0x2c>
 8d6:	2b d0       	rcall	.+86     	; 0x92e <__stack+0x2f>
 8d8:	fe 2f       	mov	r31, r30
 8da:	29 d0       	rcall	.+82     	; 0x92e <__stack+0x2f>
 8dc:	66 0f       	add	r22, r22
 8de:	77 1f       	adc	r23, r23
 8e0:	88 1f       	adc	r24, r24
 8e2:	bb 1f       	adc	r27, r27
 8e4:	26 17       	cp	r18, r22
 8e6:	37 07       	cpc	r19, r23
 8e8:	48 07       	cpc	r20, r24
 8ea:	ab 07       	cpc	r26, r27
 8ec:	b0 e8       	ldi	r27, 0x80	; 128
 8ee:	09 f0       	breq	.+2      	; 0x8f2 <__divsf3_pse+0x56>
 8f0:	bb 0b       	sbc	r27, r27
 8f2:	80 2d       	mov	r24, r0
 8f4:	bf 01       	movw	r22, r30
 8f6:	ff 27       	eor	r31, r31
 8f8:	93 58       	subi	r25, 0x83	; 131
 8fa:	5f 4f       	sbci	r21, 0xFF	; 255
 8fc:	3a f0       	brmi	.+14     	; 0x90c <__stack+0xd>
 8fe:	9e 3f       	cpi	r25, 0xFE	; 254
 900:	51 05       	cpc	r21, r1
 902:	78 f0       	brcs	.+30     	; 0x922 <__stack+0x23>
 904:	0c 94 15 05 	jmp	0xa2a	; 0xa2a <__fp_inf>
 908:	0c 94 60 05 	jmp	0xac0	; 0xac0 <__fp_szero>
 90c:	5f 3f       	cpi	r21, 0xFF	; 255
 90e:	e4 f3       	brlt	.-8      	; 0x908 <__stack+0x9>
 910:	98 3e       	cpi	r25, 0xE8	; 232
 912:	d4 f3       	brlt	.-12     	; 0x908 <__stack+0x9>
 914:	86 95       	lsr	r24
 916:	77 95       	ror	r23
 918:	67 95       	ror	r22
 91a:	b7 95       	ror	r27
 91c:	f7 95       	ror	r31
 91e:	9f 5f       	subi	r25, 0xFF	; 255
 920:	c9 f7       	brne	.-14     	; 0x914 <__stack+0x15>
 922:	88 0f       	add	r24, r24
 924:	91 1d       	adc	r25, r1
 926:	96 95       	lsr	r25
 928:	87 95       	ror	r24
 92a:	97 f9       	bld	r25, 7
 92c:	08 95       	ret
 92e:	e1 e0       	ldi	r30, 0x01	; 1
 930:	66 0f       	add	r22, r22
 932:	77 1f       	adc	r23, r23
 934:	88 1f       	adc	r24, r24
 936:	bb 1f       	adc	r27, r27
 938:	62 17       	cp	r22, r18
 93a:	73 07       	cpc	r23, r19
 93c:	84 07       	cpc	r24, r20
 93e:	ba 07       	cpc	r27, r26
 940:	20 f0       	brcs	.+8      	; 0x94a <__stack+0x4b>
 942:	62 1b       	sub	r22, r18
 944:	73 0b       	sbc	r23, r19
 946:	84 0b       	sbc	r24, r20
 948:	ba 0b       	sbc	r27, r26
 94a:	ee 1f       	adc	r30, r30
 94c:	88 f7       	brcc	.-30     	; 0x930 <__stack+0x31>
 94e:	e0 95       	com	r30
 950:	08 95       	ret

00000952 <__fixunssfsi>:
 952:	0e 94 45 05 	call	0xa8a	; 0xa8a <__fp_splitA>
 956:	88 f0       	brcs	.+34     	; 0x97a <__fixunssfsi+0x28>
 958:	9f 57       	subi	r25, 0x7F	; 127
 95a:	98 f0       	brcs	.+38     	; 0x982 <__fixunssfsi+0x30>
 95c:	b9 2f       	mov	r27, r25
 95e:	99 27       	eor	r25, r25
 960:	b7 51       	subi	r27, 0x17	; 23
 962:	b0 f0       	brcs	.+44     	; 0x990 <__fixunssfsi+0x3e>
 964:	e1 f0       	breq	.+56     	; 0x99e <__fixunssfsi+0x4c>
 966:	66 0f       	add	r22, r22
 968:	77 1f       	adc	r23, r23
 96a:	88 1f       	adc	r24, r24
 96c:	99 1f       	adc	r25, r25
 96e:	1a f0       	brmi	.+6      	; 0x976 <__fixunssfsi+0x24>
 970:	ba 95       	dec	r27
 972:	c9 f7       	brne	.-14     	; 0x966 <__fixunssfsi+0x14>
 974:	14 c0       	rjmp	.+40     	; 0x99e <__fixunssfsi+0x4c>
 976:	b1 30       	cpi	r27, 0x01	; 1
 978:	91 f0       	breq	.+36     	; 0x99e <__fixunssfsi+0x4c>
 97a:	0e 94 5f 05 	call	0xabe	; 0xabe <__fp_zero>
 97e:	b1 e0       	ldi	r27, 0x01	; 1
 980:	08 95       	ret
 982:	0c 94 5f 05 	jmp	0xabe	; 0xabe <__fp_zero>
 986:	67 2f       	mov	r22, r23
 988:	78 2f       	mov	r23, r24
 98a:	88 27       	eor	r24, r24
 98c:	b8 5f       	subi	r27, 0xF8	; 248
 98e:	39 f0       	breq	.+14     	; 0x99e <__fixunssfsi+0x4c>
 990:	b9 3f       	cpi	r27, 0xF9	; 249
 992:	cc f3       	brlt	.-14     	; 0x986 <__fixunssfsi+0x34>
 994:	86 95       	lsr	r24
 996:	77 95       	ror	r23
 998:	67 95       	ror	r22
 99a:	b3 95       	inc	r27
 99c:	d9 f7       	brne	.-10     	; 0x994 <__fixunssfsi+0x42>
 99e:	3e f4       	brtc	.+14     	; 0x9ae <__fixunssfsi+0x5c>
 9a0:	90 95       	com	r25
 9a2:	80 95       	com	r24
 9a4:	70 95       	com	r23
 9a6:	61 95       	neg	r22
 9a8:	7f 4f       	sbci	r23, 0xFF	; 255
 9aa:	8f 4f       	sbci	r24, 0xFF	; 255
 9ac:	9f 4f       	sbci	r25, 0xFF	; 255
 9ae:	08 95       	ret

000009b0 <__floatunsisf>:
 9b0:	e8 94       	clt
 9b2:	09 c0       	rjmp	.+18     	; 0x9c6 <__floatsisf+0x12>

000009b4 <__floatsisf>:
 9b4:	97 fb       	bst	r25, 7
 9b6:	3e f4       	brtc	.+14     	; 0x9c6 <__floatsisf+0x12>
 9b8:	90 95       	com	r25
 9ba:	80 95       	com	r24
 9bc:	70 95       	com	r23
 9be:	61 95       	neg	r22
 9c0:	7f 4f       	sbci	r23, 0xFF	; 255
 9c2:	8f 4f       	sbci	r24, 0xFF	; 255
 9c4:	9f 4f       	sbci	r25, 0xFF	; 255
 9c6:	99 23       	and	r25, r25
 9c8:	a9 f0       	breq	.+42     	; 0x9f4 <__floatsisf+0x40>
 9ca:	f9 2f       	mov	r31, r25
 9cc:	96 e9       	ldi	r25, 0x96	; 150
 9ce:	bb 27       	eor	r27, r27
 9d0:	93 95       	inc	r25
 9d2:	f6 95       	lsr	r31
 9d4:	87 95       	ror	r24
 9d6:	77 95       	ror	r23
 9d8:	67 95       	ror	r22
 9da:	b7 95       	ror	r27
 9dc:	f1 11       	cpse	r31, r1
 9de:	f8 cf       	rjmp	.-16     	; 0x9d0 <__floatsisf+0x1c>
 9e0:	fa f4       	brpl	.+62     	; 0xa20 <__floatsisf+0x6c>
 9e2:	bb 0f       	add	r27, r27
 9e4:	11 f4       	brne	.+4      	; 0x9ea <__floatsisf+0x36>
 9e6:	60 ff       	sbrs	r22, 0
 9e8:	1b c0       	rjmp	.+54     	; 0xa20 <__floatsisf+0x6c>
 9ea:	6f 5f       	subi	r22, 0xFF	; 255
 9ec:	7f 4f       	sbci	r23, 0xFF	; 255
 9ee:	8f 4f       	sbci	r24, 0xFF	; 255
 9f0:	9f 4f       	sbci	r25, 0xFF	; 255
 9f2:	16 c0       	rjmp	.+44     	; 0xa20 <__floatsisf+0x6c>
 9f4:	88 23       	and	r24, r24
 9f6:	11 f0       	breq	.+4      	; 0x9fc <__floatsisf+0x48>
 9f8:	96 e9       	ldi	r25, 0x96	; 150
 9fa:	11 c0       	rjmp	.+34     	; 0xa1e <__floatsisf+0x6a>
 9fc:	77 23       	and	r23, r23
 9fe:	21 f0       	breq	.+8      	; 0xa08 <__floatsisf+0x54>
 a00:	9e e8       	ldi	r25, 0x8E	; 142
 a02:	87 2f       	mov	r24, r23
 a04:	76 2f       	mov	r23, r22
 a06:	05 c0       	rjmp	.+10     	; 0xa12 <__floatsisf+0x5e>
 a08:	66 23       	and	r22, r22
 a0a:	71 f0       	breq	.+28     	; 0xa28 <__floatsisf+0x74>
 a0c:	96 e8       	ldi	r25, 0x86	; 134
 a0e:	86 2f       	mov	r24, r22
 a10:	70 e0       	ldi	r23, 0x00	; 0
 a12:	60 e0       	ldi	r22, 0x00	; 0
 a14:	2a f0       	brmi	.+10     	; 0xa20 <__floatsisf+0x6c>
 a16:	9a 95       	dec	r25
 a18:	66 0f       	add	r22, r22
 a1a:	77 1f       	adc	r23, r23
 a1c:	88 1f       	adc	r24, r24
 a1e:	da f7       	brpl	.-10     	; 0xa16 <__floatsisf+0x62>
 a20:	88 0f       	add	r24, r24
 a22:	96 95       	lsr	r25
 a24:	87 95       	ror	r24
 a26:	97 f9       	bld	r25, 7
 a28:	08 95       	ret

00000a2a <__fp_inf>:
 a2a:	97 f9       	bld	r25, 7
 a2c:	9f 67       	ori	r25, 0x7F	; 127
 a2e:	80 e8       	ldi	r24, 0x80	; 128
 a30:	70 e0       	ldi	r23, 0x00	; 0
 a32:	60 e0       	ldi	r22, 0x00	; 0
 a34:	08 95       	ret

00000a36 <__fp_nan>:
 a36:	9f ef       	ldi	r25, 0xFF	; 255
 a38:	80 ec       	ldi	r24, 0xC0	; 192
 a3a:	08 95       	ret

00000a3c <__fp_pscA>:
 a3c:	00 24       	eor	r0, r0
 a3e:	0a 94       	dec	r0
 a40:	16 16       	cp	r1, r22
 a42:	17 06       	cpc	r1, r23
 a44:	18 06       	cpc	r1, r24
 a46:	09 06       	cpc	r0, r25
 a48:	08 95       	ret

00000a4a <__fp_pscB>:
 a4a:	00 24       	eor	r0, r0
 a4c:	0a 94       	dec	r0
 a4e:	12 16       	cp	r1, r18
 a50:	13 06       	cpc	r1, r19
 a52:	14 06       	cpc	r1, r20
 a54:	05 06       	cpc	r0, r21
 a56:	08 95       	ret

00000a58 <__fp_round>:
 a58:	09 2e       	mov	r0, r25
 a5a:	03 94       	inc	r0
 a5c:	00 0c       	add	r0, r0
 a5e:	11 f4       	brne	.+4      	; 0xa64 <__fp_round+0xc>
 a60:	88 23       	and	r24, r24
 a62:	52 f0       	brmi	.+20     	; 0xa78 <__fp_round+0x20>
 a64:	bb 0f       	add	r27, r27
 a66:	40 f4       	brcc	.+16     	; 0xa78 <__fp_round+0x20>
 a68:	bf 2b       	or	r27, r31
 a6a:	11 f4       	brne	.+4      	; 0xa70 <__fp_round+0x18>
 a6c:	60 ff       	sbrs	r22, 0
 a6e:	04 c0       	rjmp	.+8      	; 0xa78 <__fp_round+0x20>
 a70:	6f 5f       	subi	r22, 0xFF	; 255
 a72:	7f 4f       	sbci	r23, 0xFF	; 255
 a74:	8f 4f       	sbci	r24, 0xFF	; 255
 a76:	9f 4f       	sbci	r25, 0xFF	; 255
 a78:	08 95       	ret

00000a7a <__fp_split3>:
 a7a:	57 fd       	sbrc	r21, 7
 a7c:	90 58       	subi	r25, 0x80	; 128
 a7e:	44 0f       	add	r20, r20
 a80:	55 1f       	adc	r21, r21
 a82:	59 f0       	breq	.+22     	; 0xa9a <__fp_splitA+0x10>
 a84:	5f 3f       	cpi	r21, 0xFF	; 255
 a86:	71 f0       	breq	.+28     	; 0xaa4 <__fp_splitA+0x1a>
 a88:	47 95       	ror	r20

00000a8a <__fp_splitA>:
 a8a:	88 0f       	add	r24, r24
 a8c:	97 fb       	bst	r25, 7
 a8e:	99 1f       	adc	r25, r25
 a90:	61 f0       	breq	.+24     	; 0xaaa <__fp_splitA+0x20>
 a92:	9f 3f       	cpi	r25, 0xFF	; 255
 a94:	79 f0       	breq	.+30     	; 0xab4 <__fp_splitA+0x2a>
 a96:	87 95       	ror	r24
 a98:	08 95       	ret
 a9a:	12 16       	cp	r1, r18
 a9c:	13 06       	cpc	r1, r19
 a9e:	14 06       	cpc	r1, r20
 aa0:	55 1f       	adc	r21, r21
 aa2:	f2 cf       	rjmp	.-28     	; 0xa88 <__fp_split3+0xe>
 aa4:	46 95       	lsr	r20
 aa6:	f1 df       	rcall	.-30     	; 0xa8a <__fp_splitA>
 aa8:	08 c0       	rjmp	.+16     	; 0xaba <__fp_splitA+0x30>
 aaa:	16 16       	cp	r1, r22
 aac:	17 06       	cpc	r1, r23
 aae:	18 06       	cpc	r1, r24
 ab0:	99 1f       	adc	r25, r25
 ab2:	f1 cf       	rjmp	.-30     	; 0xa96 <__fp_splitA+0xc>
 ab4:	86 95       	lsr	r24
 ab6:	71 05       	cpc	r23, r1
 ab8:	61 05       	cpc	r22, r1
 aba:	08 94       	sec
 abc:	08 95       	ret

00000abe <__fp_zero>:
 abe:	e8 94       	clt

00000ac0 <__fp_szero>:
 ac0:	bb 27       	eor	r27, r27
 ac2:	66 27       	eor	r22, r22
 ac4:	77 27       	eor	r23, r23
 ac6:	cb 01       	movw	r24, r22
 ac8:	97 f9       	bld	r25, 7
 aca:	08 95       	ret

00000acc <__mulsf3>:
 acc:	0e 94 79 05 	call	0xaf2	; 0xaf2 <__mulsf3x>
 ad0:	0c 94 2c 05 	jmp	0xa58	; 0xa58 <__fp_round>
 ad4:	0e 94 1e 05 	call	0xa3c	; 0xa3c <__fp_pscA>
 ad8:	38 f0       	brcs	.+14     	; 0xae8 <__mulsf3+0x1c>
 ada:	0e 94 25 05 	call	0xa4a	; 0xa4a <__fp_pscB>
 ade:	20 f0       	brcs	.+8      	; 0xae8 <__mulsf3+0x1c>
 ae0:	95 23       	and	r25, r21
 ae2:	11 f0       	breq	.+4      	; 0xae8 <__mulsf3+0x1c>
 ae4:	0c 94 15 05 	jmp	0xa2a	; 0xa2a <__fp_inf>
 ae8:	0c 94 1b 05 	jmp	0xa36	; 0xa36 <__fp_nan>
 aec:	11 24       	eor	r1, r1
 aee:	0c 94 60 05 	jmp	0xac0	; 0xac0 <__fp_szero>

00000af2 <__mulsf3x>:
 af2:	0e 94 3d 05 	call	0xa7a	; 0xa7a <__fp_split3>
 af6:	70 f3       	brcs	.-36     	; 0xad4 <__mulsf3+0x8>

00000af8 <__mulsf3_pse>:
 af8:	95 9f       	mul	r25, r21
 afa:	c1 f3       	breq	.-16     	; 0xaec <__mulsf3+0x20>
 afc:	95 0f       	add	r25, r21
 afe:	50 e0       	ldi	r21, 0x00	; 0
 b00:	55 1f       	adc	r21, r21
 b02:	62 9f       	mul	r22, r18
 b04:	f0 01       	movw	r30, r0
 b06:	72 9f       	mul	r23, r18
 b08:	bb 27       	eor	r27, r27
 b0a:	f0 0d       	add	r31, r0
 b0c:	b1 1d       	adc	r27, r1
 b0e:	63 9f       	mul	r22, r19
 b10:	aa 27       	eor	r26, r26
 b12:	f0 0d       	add	r31, r0
 b14:	b1 1d       	adc	r27, r1
 b16:	aa 1f       	adc	r26, r26
 b18:	64 9f       	mul	r22, r20
 b1a:	66 27       	eor	r22, r22
 b1c:	b0 0d       	add	r27, r0
 b1e:	a1 1d       	adc	r26, r1
 b20:	66 1f       	adc	r22, r22
 b22:	82 9f       	mul	r24, r18
 b24:	22 27       	eor	r18, r18
 b26:	b0 0d       	add	r27, r0
 b28:	a1 1d       	adc	r26, r1
 b2a:	62 1f       	adc	r22, r18
 b2c:	73 9f       	mul	r23, r19
 b2e:	b0 0d       	add	r27, r0
 b30:	a1 1d       	adc	r26, r1
 b32:	62 1f       	adc	r22, r18
 b34:	83 9f       	mul	r24, r19
 b36:	a0 0d       	add	r26, r0
 b38:	61 1d       	adc	r22, r1
 b3a:	22 1f       	adc	r18, r18
 b3c:	74 9f       	mul	r23, r20
 b3e:	33 27       	eor	r19, r19
 b40:	a0 0d       	add	r26, r0
 b42:	61 1d       	adc	r22, r1
 b44:	23 1f       	adc	r18, r19
 b46:	84 9f       	mul	r24, r20
 b48:	60 0d       	add	r22, r0
 b4a:	21 1d       	adc	r18, r1
 b4c:	82 2f       	mov	r24, r18
 b4e:	76 2f       	mov	r23, r22
 b50:	6a 2f       	mov	r22, r26
 b52:	11 24       	eor	r1, r1
 b54:	9f 57       	subi	r25, 0x7F	; 127
 b56:	50 40       	sbci	r21, 0x00	; 0
 b58:	9a f0       	brmi	.+38     	; 0xb80 <__mulsf3_pse+0x88>
 b5a:	f1 f0       	breq	.+60     	; 0xb98 <__mulsf3_pse+0xa0>
 b5c:	88 23       	and	r24, r24
 b5e:	4a f0       	brmi	.+18     	; 0xb72 <__mulsf3_pse+0x7a>
 b60:	ee 0f       	add	r30, r30
 b62:	ff 1f       	adc	r31, r31
 b64:	bb 1f       	adc	r27, r27
 b66:	66 1f       	adc	r22, r22
 b68:	77 1f       	adc	r23, r23
 b6a:	88 1f       	adc	r24, r24
 b6c:	91 50       	subi	r25, 0x01	; 1
 b6e:	50 40       	sbci	r21, 0x00	; 0
 b70:	a9 f7       	brne	.-22     	; 0xb5c <__mulsf3_pse+0x64>
 b72:	9e 3f       	cpi	r25, 0xFE	; 254
 b74:	51 05       	cpc	r21, r1
 b76:	80 f0       	brcs	.+32     	; 0xb98 <__mulsf3_pse+0xa0>
 b78:	0c 94 15 05 	jmp	0xa2a	; 0xa2a <__fp_inf>
 b7c:	0c 94 60 05 	jmp	0xac0	; 0xac0 <__fp_szero>
 b80:	5f 3f       	cpi	r21, 0xFF	; 255
 b82:	e4 f3       	brlt	.-8      	; 0xb7c <__mulsf3_pse+0x84>
 b84:	98 3e       	cpi	r25, 0xE8	; 232
 b86:	d4 f3       	brlt	.-12     	; 0xb7c <__mulsf3_pse+0x84>
 b88:	86 95       	lsr	r24
 b8a:	77 95       	ror	r23
 b8c:	67 95       	ror	r22
 b8e:	b7 95       	ror	r27
 b90:	f7 95       	ror	r31
 b92:	e7 95       	ror	r30
 b94:	9f 5f       	subi	r25, 0xFF	; 255
 b96:	c1 f7       	brne	.-16     	; 0xb88 <__mulsf3_pse+0x90>
 b98:	fe 2b       	or	r31, r30
 b9a:	88 0f       	add	r24, r24
 b9c:	91 1d       	adc	r25, r1
 b9e:	96 95       	lsr	r25
 ba0:	87 95       	ror	r24
 ba2:	97 f9       	bld	r25, 7
 ba4:	08 95       	ret

00000ba6 <__udivmodsi4>:
 ba6:	a1 e2       	ldi	r26, 0x21	; 33
 ba8:	1a 2e       	mov	r1, r26
 baa:	aa 1b       	sub	r26, r26
 bac:	bb 1b       	sub	r27, r27
 bae:	fd 01       	movw	r30, r26
 bb0:	0d c0       	rjmp	.+26     	; 0xbcc <__udivmodsi4_ep>

00000bb2 <__udivmodsi4_loop>:
 bb2:	aa 1f       	adc	r26, r26
 bb4:	bb 1f       	adc	r27, r27
 bb6:	ee 1f       	adc	r30, r30
 bb8:	ff 1f       	adc	r31, r31
 bba:	a2 17       	cp	r26, r18
 bbc:	b3 07       	cpc	r27, r19
 bbe:	e4 07       	cpc	r30, r20
 bc0:	f5 07       	cpc	r31, r21
 bc2:	20 f0       	brcs	.+8      	; 0xbcc <__udivmodsi4_ep>
 bc4:	a2 1b       	sub	r26, r18
 bc6:	b3 0b       	sbc	r27, r19
 bc8:	e4 0b       	sbc	r30, r20
 bca:	f5 0b       	sbc	r31, r21

00000bcc <__udivmodsi4_ep>:
 bcc:	66 1f       	adc	r22, r22
 bce:	77 1f       	adc	r23, r23
 bd0:	88 1f       	adc	r24, r24
 bd2:	99 1f       	adc	r25, r25
 bd4:	1a 94       	dec	r1
 bd6:	69 f7       	brne	.-38     	; 0xbb2 <__udivmodsi4_loop>
 bd8:	60 95       	com	r22
 bda:	70 95       	com	r23
 bdc:	80 95       	com	r24
 bde:	90 95       	com	r25
 be0:	9b 01       	movw	r18, r22
 be2:	ac 01       	movw	r20, r24
 be4:	bd 01       	movw	r22, r26
 be6:	cf 01       	movw	r24, r30
 be8:	08 95       	ret

00000bea <__umulhisi3>:
 bea:	a2 9f       	mul	r26, r18
 bec:	b0 01       	movw	r22, r0
 bee:	b3 9f       	mul	r27, r19
 bf0:	c0 01       	movw	r24, r0
 bf2:	a3 9f       	mul	r26, r19
 bf4:	70 0d       	add	r23, r0
 bf6:	81 1d       	adc	r24, r1
 bf8:	11 24       	eor	r1, r1
 bfa:	91 1d       	adc	r25, r1
 bfc:	b2 9f       	mul	r27, r18
 bfe:	70 0d       	add	r23, r0
 c00:	81 1d       	adc	r24, r1
 c02:	11 24       	eor	r1, r1
 c04:	91 1d       	adc	r25, r1
 c06:	08 95       	ret

00000c08 <_exit>:
 c08:	f8 94       	cli

00000c0a <__stop_program>:
 c0a:	ff cf       	rjmp	.-2      	; 0xc0a <__stop_program>
